; ModuleID = '/home/toni/Documents/vivado_projects/MadgwickAHRSoriginal/MadgwickAHRSoriginal/solution1/.autopilot/db/a.g.bc'
target datalayout = "e-p:64:64:64-i1:8:8-i8:8:8-i16:16:16-i32:32:32-i64:64:64-f32:32:32-f64:64:64-v64:64:64-v128:128:128-a0:0:64-s0:64:64-f80:128:128-n8:16:32:64-S128"
target triple = "x86_64-unknown-linux-gnu"

%"class.std::ios_base::Init" = type {}
%"class.std::locale::_Impl" = type { i32, %"class.std::locale::facet"**, i64, %"class.std::locale::facet"**, i8** }
%"class.std::locale::facet" = type { i32 (...)**, i32 }
%struct.__locale_struct = type { [13 x %"class.std::ios_base::Init"*], i16*, i32*, i32*, [13 x i8*] }
%"class.std::locale::id" = type { i64 }
%"class.std::basic_istream" = type { i32 (...)**, i64, %"class.std::basic_ios" }
%"class.std::basic_ios" = type { %"class.std::ios_base", %"class.std::basic_ostream"*, i8, i1, %"class.std::basic_streambuf"*, %"class.std::ctype"*, %"class.std::num_put"*, %"class.std::num_get"* }
%"class.std::ios_base" = type { i32 (...)**, i64, i64, i17, i17, i17, %"struct.std::ios_base::_Callback_list"*, %"struct.std::ios_base::_Words", [8 x %"struct.std::ios_base::_Words"], i32, %"struct.std::ios_base::_Words"*, %"class.std::locale" }
%"struct.std::ios_base::_Callback_list" = type { %"struct.std::ios_base::_Callback_list"*, void (i2, %"class.std::ios_base"*, i32)*, i32, i32 }
%"struct.std::ios_base::_Words" = type { i8*, i64 }
%"class.std::locale" = type { %"class.std::locale::_Impl"* }
%"class.std::basic_ostream" = type { i32 (...)**, %"class.std::basic_ios" }
%"class.std::basic_streambuf" = type { i32 (...)**, i8*, i8*, i8*, i8*, i8*, i8*, %"class.std::locale" }
%"class.std::ctype" = type { %"class.std::locale::facet", %struct.__locale_struct*, i1, i32*, i32*, i16*, i8, [256 x i8], [256 x i8], i8 }
%"class.std::num_put" = type { %"class.std::locale::facet" }
%"class.std::num_get" = type { %"class.std::locale::facet" }
%"class.std::basic_istream.8" = type { i32 (...)**, i64, %"class.std::basic_ios.10" }
%"class.std::basic_ios.10" = type { %"class.std::ios_base", %"class.std::basic_ostream.11"*, i32, i1, %"class.std::basic_streambuf.12"*, %"class.std::ctype.13"*, %"class.std::num_put.14"*, %"class.std::num_get.15"* }
%"class.std::basic_ostream.11" = type { i32 (...)**, %"class.std::basic_ios.10" }
%"class.std::basic_streambuf.12" = type { i32 (...)**, i32*, i32*, i32*, i32*, i32*, i32*, %"class.std::locale" }
%"class.std::ctype.13" = type { %"class.std::__ctype_abstract_base", %struct.__locale_struct*, i1, [128 x i8], [256 x i32], [16 x i16], [16 x i64] }
%"class.std::__ctype_abstract_base" = type { %"class.std::locale::facet" }
%"class.std::num_put.14" = type { %"class.std::locale::facet" }
%"class.std::num_get.15" = type { %"class.std::locale::facet" }
%struct._IO_FILE = type { i32, i8*, i8*, i8*, i8*, i8*, i8*, i8*, i8*, i8*, i8*, i8*, %struct._IO_marker*, %struct._IO_FILE*, i32, i32, i64, i16, i8, [1 x i8], i8*, i64, i8*, i8*, i8*, i8*, i64, i32, [20 x i8] }
%struct._IO_marker = type { %struct._IO_marker*, %struct._IO_FILE*, i32 }
%class.csv = type { %"class.std::basic_string", %"class.std::basic_string", %"class.std::basic_ifstream", %"class.std::vector", %"class.std::vector.3", i32, i32 }
%"class.std::basic_string" = type { %"struct.std::basic_string<char, std::char_traits<char>, std::allocator<char> >::_Alloc_hider" }
%"struct.std::basic_string<char, std::char_traits<char>, std::allocator<char> >::_Alloc_hider" = type { i8* }
%"class.std::basic_ifstream" = type { %"class.std::basic_istream.base", %"class.std::basic_filebuf", %"class.std::basic_ios" }
%"class.std::basic_istream.base" = type { i32 (...)**, i64 }
%"class.std::basic_filebuf" = type { %"class.std::basic_streambuf", %union.pthread_mutex_t, %"class.std::__basic_file", i17, %struct.__mbstate_t, %struct.__mbstate_t, %struct.__mbstate_t, i8*, i64, i1, i1, i1, i8, i8*, i8*, i1, %"class.std::codecvt"*, i8*, i64, i8*, i8* }
%union.pthread_mutex_t = type { %"struct.<anonymous union>::__pthread_mutex_s" }
%"struct.<anonymous union>::__pthread_mutex_s" = type { i32, i32, i32, i32, i32, i16, i16, %struct.__pthread_internal_list }
%struct.__pthread_internal_list = type { %struct.__pthread_internal_list*, %struct.__pthread_internal_list* }
%"class.std::__basic_file" = type { %struct._IO_FILE*, i1 }
%struct.__mbstate_t = type { i32, %union.anon }
%union.anon = type { i32 }
%"class.std::codecvt" = type { %"class.std::__codecvt_abstract_base", %struct.__locale_struct* }
%"class.std::__codecvt_abstract_base" = type { %"class.std::locale::facet" }
%"class.std::vector" = type { %"struct.std::_Vector_base" }
%"struct.std::_Vector_base" = type { %"struct.std::_Vector_base<std::vector<std::basic_string<char>, std::allocator<std::basic_string<char> > >, std::allocator<std::vector<std::basic_string<char>, std::allocator<std::basic_string<char> > > > >::_Vector_impl" }
%"struct.std::_Vector_base<std::vector<std::basic_string<char>, std::allocator<std::basic_string<char> > >, std::allocator<std::vector<std::basic_string<char>, std::allocator<std::basic_string<char> > > > >::_Vector_impl" = type { %"class.std::vector.3"*, %"class.std::vector.3"*, %"class.std::vector.3"* }
%"class.std::vector.3" = type { %"struct.std::_Vector_base.4" }
%"struct.std::_Vector_base.4" = type { %"struct.std::_Vector_base<std::basic_string<char>, std::allocator<std::basic_string<char> > >::_Vector_impl" }
%"struct.std::_Vector_base<std::basic_string<char>, std::allocator<std::basic_string<char> > >::_Vector_impl" = type { %"class.std::basic_string"*, %"class.std::basic_string"*, %"class.std::basic_string"* }
%"class.std::basic_stringstream" = type { %"class.std::basic_iostream.base", %"class.std::basic_stringbuf", %"class.std::basic_ios" }
%"class.std::basic_iostream.base" = type { %"class.std::basic_istream.base", %"class.std::basic_ostream.base" }
%"class.std::basic_ostream.base" = type { i32 (...)** }
%"class.std::basic_stringbuf" = type { %"class.std::basic_streambuf", i17, %"class.std::basic_string" }
%"class.__gnu_cxx::__normal_iterator.18" = type { %"class.std::basic_string"* }
%"class.__gnu_cxx::__normal_iterator" = type { %"class.std::vector.3"* }
%"class.std::basic_ofstream" = type { %"class.std::basic_ostream.base", %"class.std::basic_filebuf", %"class.std::basic_ios" }

@_ZStL8__ioinit = internal global %"class.std::ios_base::Init" zeroinitializer, align 1 ; [#uses=2 type=%"class.std::ios_base::Init"*]
@.str = private unnamed_addr constant [2 x i8] c",\00", align 1 ; [#uses=1 type=[2 x i8]*]
@.str1 = private unnamed_addr constant [2 x i8] c"\0A\00", align 1 ; [#uses=1 type=[2 x i8]*]
@_ZN9__gnu_cxx24__numeric_traits_integer11__is_signedE = external constant i1 ; [#uses=0 type=i1*]
@_ZN9__gnu_cxx24__numeric_traits_integer8__digitsE = external constant i32 ; [#uses=0 type=i32*]
@_ZN9__gnu_cxx25__numeric_traits_floating14__max_digits10E = external constant i32 ; [#uses=0 type=i32*]
@_ZN9__gnu_cxx25__numeric_traits_floating11__is_signedE = external constant i1 ; [#uses=0 type=i1*]
@_ZN9__gnu_cxx25__numeric_traits_floating10__digits10E = external constant i32 ; [#uses=0 type=i32*]
@_ZN9__gnu_cxx25__numeric_traits_floating16__max_exponent10E = external constant i32 ; [#uses=0 type=i32*]
@__daylight = external global i32                 ; [#uses=0 type=i32*]
@__timezone = external global i64                 ; [#uses=0 type=i64*]
@daylight = external global i32                   ; [#uses=0 type=i32*]
@timezone = external global i64                   ; [#uses=0 type=i64*]
@getdate_err = external global i32                ; [#uses=0 type=i32*]
@__environ = external global i8**                 ; [#uses=0 type=i8***]
@environ = external global i8**                   ; [#uses=0 type=i8***]
@optarg = external global i8*                     ; [#uses=0 type=i8**]
@optind = external global i32                     ; [#uses=0 type=i32*]
@opterr = external global i32                     ; [#uses=0 type=i32*]
@optopt = external global i32                     ; [#uses=0 type=i32*]
@_ZSt7nothrow = external global %"class.std::ios_base::Init" ; [#uses=0 type=%"class.std::ios_base::Init"*]
@_ZNSt6locale10_S_classicE = external global %"class.std::locale::_Impl"* ; [#uses=0 type=%"class.std::locale::_Impl"**]
@_ZNSt6locale9_S_globalE = external global %"class.std::locale::_Impl"* ; [#uses=0 type=%"class.std::locale::_Impl"**]
@_ZNSt6locale7_S_onceE = external global i32      ; [#uses=0 type=i32*]
@_ZNSt6locale5facet11_S_c_localeE = external global %struct.__locale_struct* ; [#uses=0 type=%struct.__locale_struct**]
@_ZNSt6locale5facet7_S_onceE = external global i32 ; [#uses=0 type=i32*]
@_ZNSt6locale2id11_S_refcountE = external global i32 ; [#uses=0 type=i32*]
@_ZNSt7collate2idE = external global %"class.std::locale::id" ; [#uses=0 type=%"class.std::locale::id"*]
@_ZNSt8ios_base4Init11_S_refcountE = external global i32 ; [#uses=0 type=i32*]
@_ZNSt8ios_base4Init20_S_synced_with_stdioE = external global i1 ; [#uses=0 type=i1*]
@_ZNSt5ctype2idE = external global %"class.std::locale::id" ; [#uses=0 type=%"class.std::locale::id"*]
@_ZNSt5ctypeIcE2idE = external global %"class.std::locale::id" ; [#uses=0 type=%"class.std::locale::id"*]
@_ZNSt5ctypeIwE2idE = external global %"class.std::locale::id" ; [#uses=0 type=%"class.std::locale::id"*]
@_ZNSt10__num_base12_S_atoms_outE = external global i8* ; [#uses=0 type=i8**]
@_ZNSt10__num_base11_S_atoms_inE = external global i8* ; [#uses=0 type=i8**]
@_ZNSt8numpunct2idE = external global %"class.std::locale::id" ; [#uses=0 type=%"class.std::locale::id"*]
@_ZNSt7num_get2idE = external global %"class.std::locale::id" ; [#uses=0 type=%"class.std::locale::id"*]
@_ZNSt7num_put2idE = external global %"class.std::locale::id" ; [#uses=0 type=%"class.std::locale::id"*]
@_ZSt3cin = external global %"class.std::basic_istream" ; [#uses=0 type=%"class.std::basic_istream"*]
@_ZSt4cout = external global %"class.std::basic_ostream" ; [#uses=0 type=%"class.std::basic_ostream"*]
@_ZSt4cerr = external global %"class.std::basic_ostream" ; [#uses=0 type=%"class.std::basic_ostream"*]
@_ZSt4clog = external global %"class.std::basic_ostream" ; [#uses=0 type=%"class.std::basic_ostream"*]
@_ZSt4wcin = external global %"class.std::basic_istream.8" ; [#uses=0 type=%"class.std::basic_istream.8"*]
@_ZSt5wcout = external global %"class.std::basic_ostream.11" ; [#uses=0 type=%"class.std::basic_ostream.11"*]
@_ZSt5wcerr = external global %"class.std::basic_ostream.11" ; [#uses=0 type=%"class.std::basic_ostream.11"*]
@_ZSt5wclog = external global %"class.std::basic_ostream.11" ; [#uses=0 type=%"class.std::basic_ostream.11"*]
@_ZNSt7codecvt2idE = external global %"class.std::locale::id" ; [#uses=0 type=%"class.std::locale::id"*]
@_ZNSt7codecvtIcc11__mbstate_tE2idE = external global %"class.std::locale::id" ; [#uses=0 type=%"class.std::locale::id"*]
@_ZNSt7codecvtIwc11__mbstate_tE2idE = external global %"class.std::locale::id" ; [#uses=0 type=%"class.std::locale::id"*]
@_IO_2_1_stdin_ = external global %"class.std::ios_base::Init" ; [#uses=0 type=%"class.std::ios_base::Init"*]
@_IO_2_1_stdout_ = external global %"class.std::ios_base::Init" ; [#uses=0 type=%"class.std::ios_base::Init"*]
@_IO_2_1_stderr_ = external global %"class.std::ios_base::Init" ; [#uses=0 type=%"class.std::ios_base::Init"*]
@stdin = external global %struct._IO_FILE*        ; [#uses=0 type=%struct._IO_FILE**]
@stdout = external global %struct._IO_FILE*       ; [#uses=0 type=%struct._IO_FILE**]
@stderr = external global %struct._IO_FILE*       ; [#uses=0 type=%struct._IO_FILE**]
@sys_nerr = external global i32                   ; [#uses=0 type=i32*]
@_sys_nerr = external global i32                  ; [#uses=0 type=i32*]
@.str2 = private unnamed_addr constant [22 x i8] c"vector::_M_insert_aux\00", align 1 ; [#uses=1 type=[22 x i8]*]
@llvm.global_ctors = appending global [1 x { i32, void ()* }] [{ i32, void ()* } { i32 65535, void ()* @_GLOBAL__I_a }] ; [#uses=0 type=[1 x { i32, void ()* }]*]
@beta = global float 0x3FB99999A0000000, align 4  ; [#uses=8 type=float*]
@q0 = global float 1.000000e+00, align 4          ; [#uses=36 type=float*]
@q1 = global float 0.000000e+00, align 4          ; [#uses=39 type=float*]
@q2 = global float 0.000000e+00, align 4          ; [#uses=43 type=float*]
@q3 = global float 0.000000e+00, align 4          ; [#uses=41 type=float*]

@_ZN3csvC1Ev = alias void (%class.csv*)* @_ZN3csvC2Ev ; [#uses=0 type=void (%class.csv*)*]
@_ZN3csvD1Ev = alias void (%class.csv*)* @_ZN3csvD2Ev ; [#uses=0 type=void (%class.csv*)*]
@_ZN3csvC1ESs = alias void (%class.csv*, %"class.std::basic_string"*)* @_ZN3csvC2ESs ; [#uses=0 type=void (%class.csv*, %"class.std::basic_string"*)*]

; [#uses=1]
define internal void @__cxx_global_var_init() nounwind section ".text.startup" {
  call void @_ZNSt8ios_base4InitC1Ev(%"class.std::ios_base::Init"* @_ZStL8__ioinit)
  %1 = call i32 @atexit(void ()* @__dtor__ZStL8__ioinit) ; [#uses=0 type=i32]
  ret void
}

; [#uses=1]
declare void @_ZNSt8ios_base4InitC1Ev(%"class.std::ios_base::Init"*)

; [#uses=1]
declare void @_ZNSt8ios_base4InitD1Ev(%"class.std::ios_base::Init"*)

; [#uses=1]
define internal void @__dtor__ZStL8__ioinit() nounwind section ".text.startup" {
  call void @_ZNSt8ios_base4InitD1Ev(%"class.std::ios_base::Init"* @_ZStL8__ioinit)
  ret void
}

; [#uses=1]
declare i32 @atexit(void ()*) nounwind

; [#uses=1]
define void @_ZN3csvC2Ev(%class.csv* %this) unnamed_addr nounwind uwtable align 2 {
  %1 = alloca %class.csv*, align 8                ; [#uses=2 type=%class.csv**]
  store %class.csv* %this, %class.csv** %1, align 8
  call void @llvm.dbg.declare(metadata !{%class.csv** %1}, metadata !4534), !dbg !4536 ; [debug line = 10:6] [debug variable = this]
  %2 = load %class.csv** %1                       ; [#uses=5 type=%class.csv*]
  %3 = getelementptr inbounds %class.csv* %2, i32 0, i32 0, !dbg !4537 ; [#uses=1 type=%"class.std::basic_string"*] [debug line = 10:12]
  call void @_ZNSsC1Ev(%"class.std::basic_string"* %3), !dbg !4537 ; [debug line = 10:12]
  %4 = getelementptr inbounds %class.csv* %2, i32 0, i32 1, !dbg !4537 ; [#uses=1 type=%"class.std::basic_string"*] [debug line = 10:12]
  call void @_ZNSsC1Ev(%"class.std::basic_string"* %4), !dbg !4537 ; [debug line = 10:12]
  %5 = getelementptr inbounds %class.csv* %2, i32 0, i32 2, !dbg !4537 ; [#uses=1 type=%"class.std::basic_ifstream"*] [debug line = 10:12]
  call void @_ZNSt14basic_ifstreamIcSt11char_traitsIcEEC1Ev(%"class.std::basic_ifstream"* %5), !dbg !4537 ; [debug line = 10:12]
  %6 = getelementptr inbounds %class.csv* %2, i32 0, i32 3, !dbg !4537 ; [#uses=1 type=%"class.std::vector"*] [debug line = 10:12]
  call void @_ZNSt6vectorIS_ISsSaISsEESaIS1_EEC1Ev(%"class.std::vector"* %6), !dbg !4537 ; [debug line = 10:12]
  %7 = getelementptr inbounds %class.csv* %2, i32 0, i32 4, !dbg !4537 ; [#uses=1 type=%"class.std::vector.3"*] [debug line = 10:12]
  call void @_ZNSt6vectorISsSaISsEEC1Ev(%"class.std::vector.3"* %7), !dbg !4537 ; [debug line = 10:12]
  ret void, !dbg !4538                            ; [debug line = 13:1]
}

; [#uses=398]
declare void @llvm.dbg.declare(metadata, metadata) nounwind readnone

; [#uses=8]
declare void @_ZNSsC1Ev(%"class.std::basic_string"*)

; [#uses=2]
declare void @_ZNSt14basic_ifstreamIcSt11char_traitsIcEEC1Ev(%"class.std::basic_ifstream"*)

; [#uses=2]
define linkonce_odr void @_ZNSt6vectorIS_ISsSaISsEESaIS1_EEC1Ev(%"class.std::vector"* %this) unnamed_addr nounwind uwtable align 2 {
  %1 = alloca %"class.std::vector"*, align 8      ; [#uses=2 type=%"class.std::vector"**]
  store %"class.std::vector"* %this, %"class.std::vector"** %1, align 8
  call void @llvm.dbg.declare(metadata !{%"class.std::vector"** %1}, metadata !4540), !dbg !4542 ; [debug line = 217:7] [debug variable = this]
  %2 = load %"class.std::vector"** %1             ; [#uses=1 type=%"class.std::vector"*]
  call void @_ZNSt6vectorIS_ISsSaISsEESaIS1_EEC2Ev(%"class.std::vector"* %2), !dbg !4543 ; [debug line = 218:19]
  ret void, !dbg !4543                            ; [debug line = 218:19]
}

; [#uses=2]
define linkonce_odr void @_ZNSt6vectorISsSaISsEEC1Ev(%"class.std::vector.3"* %this) unnamed_addr nounwind uwtable align 2 {
  %1 = alloca %"class.std::vector.3"*, align 8    ; [#uses=2 type=%"class.std::vector.3"**]
  store %"class.std::vector.3"* %this, %"class.std::vector.3"** %1, align 8
  call void @llvm.dbg.declare(metadata !{%"class.std::vector.3"** %1}, metadata !4544), !dbg !4545 ; [debug line = 217:7] [debug variable = this]
  %2 = load %"class.std::vector.3"** %1           ; [#uses=1 type=%"class.std::vector.3"*]
  call void @_ZNSt6vectorISsSaISsEEC2Ev(%"class.std::vector.3"* %2), !dbg !4546 ; [debug line = 218:19]
  ret void, !dbg !4546                            ; [debug line = 218:19]
}

; [#uses=1]
define void @_ZN3csvD2Ev(%class.csv* %this) unnamed_addr nounwind uwtable align 2 {
  %1 = alloca %class.csv*, align 8                ; [#uses=2 type=%class.csv**]
  store %class.csv* %this, %class.csv** %1, align 8
  call void @llvm.dbg.declare(metadata !{%class.csv** %1}, metadata !4547), !dbg !4548 ; [debug line = 15:6] [debug variable = this]
  %2 = load %class.csv** %1                       ; [#uses=5 type=%class.csv*]
  %3 = getelementptr inbounds %class.csv* %2, i32 0, i32 4, !dbg !4549 ; [#uses=1 type=%"class.std::vector.3"*] [debug line = 17:1]
  call void @_ZNSt6vectorISsSaISsEED1Ev(%"class.std::vector.3"* %3), !dbg !4549 ; [debug line = 17:1]
  %4 = getelementptr inbounds %class.csv* %2, i32 0, i32 3, !dbg !4549 ; [#uses=1 type=%"class.std::vector"*] [debug line = 17:1]
  call void @_ZNSt6vectorIS_ISsSaISsEESaIS1_EED1Ev(%"class.std::vector"* %4), !dbg !4549 ; [debug line = 17:1]
  %5 = getelementptr inbounds %class.csv* %2, i32 0, i32 2, !dbg !4549 ; [#uses=1 type=%"class.std::basic_ifstream"*] [debug line = 17:1]
  call void @_ZNSt14basic_ifstreamIcSt11char_traitsIcEED1Ev(%"class.std::basic_ifstream"* %5), !dbg !4549 ; [debug line = 17:1]
  %6 = getelementptr inbounds %class.csv* %2, i32 0, i32 1, !dbg !4549 ; [#uses=1 type=%"class.std::basic_string"*] [debug line = 17:1]
  call void @_ZNSsD1Ev(%"class.std::basic_string"* %6), !dbg !4549 ; [debug line = 17:1]
  %7 = getelementptr inbounds %class.csv* %2, i32 0, i32 0, !dbg !4549 ; [#uses=1 type=%"class.std::basic_string"*] [debug line = 17:1]
  call void @_ZNSsD1Ev(%"class.std::basic_string"* %7), !dbg !4549 ; [debug line = 17:1]
  ret void, !dbg !4549                            ; [debug line = 17:1]
}

; [#uses=3]
define linkonce_odr void @_ZNSt6vectorISsSaISsEED1Ev(%"class.std::vector.3"* %this) unnamed_addr nounwind uwtable align 2 {
  %1 = alloca %"class.std::vector.3"*, align 8    ; [#uses=2 type=%"class.std::vector.3"**]
  store %"class.std::vector.3"* %this, %"class.std::vector.3"** %1, align 8
  call void @llvm.dbg.declare(metadata !{%"class.std::vector.3"** %1}, metadata !4551), !dbg !4552 ; [debug line = 349:7] [debug variable = this]
  %2 = load %"class.std::vector.3"** %1           ; [#uses=1 type=%"class.std::vector.3"*]
  call void @_ZNSt6vectorISsSaISsEED2Ev(%"class.std::vector.3"* %2), !dbg !4553 ; [debug line = 350:7]
  ret void, !dbg !4554                            ; [debug line = 351:33]
}

; [#uses=1]
define linkonce_odr void @_ZNSt6vectorIS_ISsSaISsEESaIS1_EED1Ev(%"class.std::vector"* %this) unnamed_addr nounwind uwtable align 2 {
  %1 = alloca %"class.std::vector"*, align 8      ; [#uses=2 type=%"class.std::vector"**]
  store %"class.std::vector"* %this, %"class.std::vector"** %1, align 8
  call void @llvm.dbg.declare(metadata !{%"class.std::vector"** %1}, metadata !4555), !dbg !4556 ; [debug line = 349:7] [debug variable = this]
  %2 = load %"class.std::vector"** %1             ; [#uses=1 type=%"class.std::vector"*]
  call void @_ZNSt6vectorIS_ISsSaISsEESaIS1_EED2Ev(%"class.std::vector"* %2), !dbg !4557 ; [debug line = 350:7]
  ret void, !dbg !4558                            ; [debug line = 351:33]
}

; [#uses=1]
declare void @_ZNSt14basic_ifstreamIcSt11char_traitsIcEED1Ev(%"class.std::basic_ifstream"*)

; [#uses=13]
declare void @_ZNSsD1Ev(%"class.std::basic_string"*)

; [#uses=1]
define void @_ZN3csvC2ESs(%class.csv* %this, %"class.std::basic_string"* %name) unnamed_addr nounwind uwtable align 2 {
  %1 = alloca %class.csv*, align 8                ; [#uses=2 type=%class.csv**]
  %line = alloca %"class.std::basic_string", align 8 ; [#uses=4 type=%"class.std::basic_string"*]
  %field = alloca %"class.std::basic_string", align 8 ; [#uses=4 type=%"class.std::basic_string"*]
  %2 = alloca %"class.std::basic_string", align 8 ; [#uses=3 type=%"class.std::basic_string"*]
  %ss = alloca %"class.std::basic_stringstream", align 8 ; [#uses=3 type=%"class.std::basic_stringstream"*]
  store %class.csv* %this, %class.csv** %1, align 8
  call void @llvm.dbg.declare(metadata !{%class.csv** %1}, metadata !4559), !dbg !4560 ; [debug line = 19:6] [debug variable = this]
  call void @llvm.dbg.declare(metadata !{%"class.std::basic_string"* %name}, metadata !4561), !dbg !4562 ; [debug line = 19:17] [debug variable = name]
  %3 = load %class.csv** %1                       ; [#uses=20 type=%class.csv*]
  %4 = getelementptr inbounds %class.csv* %3, i32 0, i32 0, !dbg !4563 ; [#uses=1 type=%"class.std::basic_string"*] [debug line = 19:22]
  call void @_ZNSsC1Ev(%"class.std::basic_string"* %4), !dbg !4563 ; [debug line = 19:22]
  %5 = getelementptr inbounds %class.csv* %3, i32 0, i32 1, !dbg !4563 ; [#uses=1 type=%"class.std::basic_string"*] [debug line = 19:22]
  call void @_ZNSsC1Ev(%"class.std::basic_string"* %5), !dbg !4563 ; [debug line = 19:22]
  %6 = getelementptr inbounds %class.csv* %3, i32 0, i32 2, !dbg !4563 ; [#uses=1 type=%"class.std::basic_ifstream"*] [debug line = 19:22]
  call void @_ZNSt14basic_ifstreamIcSt11char_traitsIcEEC1Ev(%"class.std::basic_ifstream"* %6), !dbg !4563 ; [debug line = 19:22]
  %7 = getelementptr inbounds %class.csv* %3, i32 0, i32 3, !dbg !4563 ; [#uses=1 type=%"class.std::vector"*] [debug line = 19:22]
  call void @_ZNSt6vectorIS_ISsSaISsEESaIS1_EEC1Ev(%"class.std::vector"* %7), !dbg !4563 ; [debug line = 19:22]
  %8 = getelementptr inbounds %class.csv* %3, i32 0, i32 4, !dbg !4563 ; [#uses=1 type=%"class.std::vector.3"*] [debug line = 19:22]
  call void @_ZNSt6vectorISsSaISsEEC1Ev(%"class.std::vector.3"* %8), !dbg !4563 ; [debug line = 19:22]
  call void @llvm.dbg.declare(metadata !{%"class.std::basic_string"* %line}, metadata !4564), !dbg !4566 ; [debug line = 20:9] [debug variable = line]
  call void @_ZNSsC1Ev(%"class.std::basic_string"* %line), !dbg !4567 ; [debug line = 20:20]
  call void @llvm.dbg.declare(metadata !{%"class.std::basic_string"* %field}, metadata !4568), !dbg !4569 ; [debug line = 20:15] [debug variable = field]
  call void @_ZNSsC1Ev(%"class.std::basic_string"* %field), !dbg !4567 ; [debug line = 20:20]
  %9 = getelementptr inbounds %class.csv* %3, i32 0, i32 1, !dbg !4570 ; [#uses=1 type=%"class.std::basic_string"*] [debug line = 22:2]
  %10 = call %"class.std::basic_string"* @_ZNSsaSERKSs(%"class.std::basic_string"* %9, %"class.std::basic_string"* %name), !dbg !4570 ; [#uses=0 type=%"class.std::basic_string"*] [debug line = 22:2]
  %11 = getelementptr inbounds %class.csv* %3, i32 0, i32 1, !dbg !4571 ; [#uses=1 type=%"class.std::basic_string"*] [debug line = 23:2]
  %12 = getelementptr inbounds %class.csv* %3, i32 0, i32 0, !dbg !4572 ; [#uses=1 type=%"class.std::basic_string"*] [debug line = 23:11]
  %13 = getelementptr inbounds %class.csv* %3, i32 0, i32 1, !dbg !4572 ; [#uses=1 type=%"class.std::basic_string"*] [debug line = 23:11]
  call void @_ZStplIcSt11char_traitsIcESaIcEESbIT_T0_T1_ERKS6_S8_(%"class.std::basic_string"* sret %2, %"class.std::basic_string"* %12, %"class.std::basic_string"* %13), !dbg !4572 ; [debug line = 23:11]
  %14 = call %"class.std::basic_string"* @_ZNSsaSERKSs(%"class.std::basic_string"* %11, %"class.std::basic_string"* %2), !dbg !4572 ; [#uses=0 type=%"class.std::basic_string"*] [debug line = 23:11]
  call void @_ZNSsD1Ev(%"class.std::basic_string"* %2), !dbg !4572 ; [debug line = 23:11]
  %15 = getelementptr inbounds %class.csv* %3, i32 0, i32 2, !dbg !4573 ; [#uses=1 type=%"class.std::basic_ifstream"*] [debug line = 24:2]
  %16 = getelementptr inbounds %class.csv* %3, i32 0, i32 1, !dbg !4574 ; [#uses=1 type=%"class.std::basic_string"*] [debug line = 24:16]
  %17 = call i8* @_ZNKSs5c_strEv(%"class.std::basic_string"* %16), !dbg !4574 ; [#uses=1 type=i8*] [debug line = 24:16]
  call void @_ZNSt14basic_ifstreamIcSt11char_traitsIcEE4openEPKcSt13_Ios_Openmode(%"class.std::basic_ifstream"* %15, i8* %17, i17 zeroext 8), !dbg !4574 ; [debug line = 24:16]
  br label %18, !dbg !4575                        ; [debug line = 26:2]

; <label>:18                                      ; preds = %50, %0
  %19 = getelementptr inbounds %class.csv* %3, i32 0, i32 2, !dbg !4576 ; [#uses=1 type=%"class.std::basic_ifstream"*] [debug line = 26:9]
  %20 = bitcast %"class.std::basic_ifstream"* %19 to %"class.std::basic_istream"*, !dbg !4576 ; [#uses=1 type=%"class.std::basic_istream"*] [debug line = 26:9]
  %21 = call %"class.std::basic_istream"* @_ZSt7getlineIcSt11char_traitsIcESaIcEERSt13basic_istreamIT_T0_ES7_RSbIS4_S5_T1_E(%"class.std::basic_istream"* %20, %"class.std::basic_string"* %line), !dbg !4576 ; [#uses=2 type=%"class.std::basic_istream"*] [debug line = 26:9]
  %22 = bitcast %"class.std::basic_istream"* %21 to i8**, !dbg !4576 ; [#uses=1 type=i8**] [debug line = 26:9]
  %23 = load i8** %22, !dbg !4576                 ; [#uses=1 type=i8*] [debug line = 26:9]
  %24 = getelementptr i8* %23, i64 -24, !dbg !4576 ; [#uses=1 type=i8*] [debug line = 26:9]
  %25 = bitcast i8* %24 to i64*, !dbg !4576       ; [#uses=1 type=i64*] [debug line = 26:9]
  %26 = load i64* %25, !dbg !4576                 ; [#uses=1 type=i64] [debug line = 26:9]
  %27 = bitcast %"class.std::basic_istream"* %21 to i8*, !dbg !4576 ; [#uses=1 type=i8*] [debug line = 26:9]
  %28 = getelementptr i8* %27, i64 %26, !dbg !4576 ; [#uses=1 type=i8*] [debug line = 26:9]
  %29 = bitcast i8* %28 to %"class.std::basic_ios"*, !dbg !4576 ; [#uses=1 type=%"class.std::basic_ios"*] [debug line = 26:9]
  %30 = call i8* @_ZNKSt9basic_iosIcSt11char_traitsIcEEcvPvEv(%"class.std::basic_ios"* %29), !dbg !4576 ; [#uses=1 type=i8*] [debug line = 26:9]
  %31 = icmp ne i8* %30, null, !dbg !4576         ; [#uses=1 type=i1] [debug line = 26:9]
  br i1 %31, label %32, label %53, !dbg !4576     ; [debug line = 26:9]

; <label>:32                                      ; preds = %18
  %33 = getelementptr inbounds %class.csv* %3, i32 0, i32 4, !dbg !4577 ; [#uses=1 type=%"class.std::vector.3"*] [debug line = 28:3]
  call void @_ZNSt6vectorISsSaISsEE5clearEv(%"class.std::vector.3"* %33), !dbg !4577 ; [debug line = 28:3]
  call void @llvm.dbg.declare(metadata !{%"class.std::basic_stringstream"* %ss}, metadata !4579), !dbg !4685 ; [debug line = 29:16] [debug variable = ss]
  %34 = call zeroext i17 @_ZStorSt13_Ios_OpenmodeS_(i17 zeroext 16, i17 zeroext 8), !dbg !4686 ; [#uses=1 type=i17] [debug line = 29:24]
  call void @_ZNSt18basic_stringstreamIcSt11char_traitsIcESaIcEEC1ERKSsSt13_Ios_Openmode(%"class.std::basic_stringstream"* %ss, %"class.std::basic_string"* %line, i17 zeroext %34), !dbg !4686 ; [debug line = 29:24]
  br label %35, !dbg !4687                        ; [debug line = 31:3]

; <label>:35                                      ; preds = %48, %32
  %36 = bitcast %"class.std::basic_stringstream"* %ss to %"class.std::basic_istream"*, !dbg !4688 ; [#uses=1 type=%"class.std::basic_istream"*] [debug line = 31:10]
  %37 = call %"class.std::basic_istream"* @_ZSt7getlineIcSt11char_traitsIcESaIcEERSt13basic_istreamIT_T0_ES7_RSbIS4_S5_T1_ES4_(%"class.std::basic_istream"* %36, %"class.std::basic_string"* %field, i8 signext 44), !dbg !4688 ; [#uses=2 type=%"class.std::basic_istream"*] [debug line = 31:10]
  %38 = bitcast %"class.std::basic_istream"* %37 to i8**, !dbg !4688 ; [#uses=1 type=i8**] [debug line = 31:10]
  %39 = load i8** %38, !dbg !4688                 ; [#uses=1 type=i8*] [debug line = 31:10]
  %40 = getelementptr i8* %39, i64 -24, !dbg !4688 ; [#uses=1 type=i8*] [debug line = 31:10]
  %41 = bitcast i8* %40 to i64*, !dbg !4688       ; [#uses=1 type=i64*] [debug line = 31:10]
  %42 = load i64* %41, !dbg !4688                 ; [#uses=1 type=i64] [debug line = 31:10]
  %43 = bitcast %"class.std::basic_istream"* %37 to i8*, !dbg !4688 ; [#uses=1 type=i8*] [debug line = 31:10]
  %44 = getelementptr i8* %43, i64 %42, !dbg !4688 ; [#uses=1 type=i8*] [debug line = 31:10]
  %45 = bitcast i8* %44 to %"class.std::basic_ios"*, !dbg !4688 ; [#uses=1 type=%"class.std::basic_ios"*] [debug line = 31:10]
  %46 = call i8* @_ZNKSt9basic_iosIcSt11char_traitsIcEEcvPvEv(%"class.std::basic_ios"* %45), !dbg !4688 ; [#uses=1 type=i8*] [debug line = 31:10]
  %47 = icmp ne i8* %46, null, !dbg !4688         ; [#uses=1 type=i1] [debug line = 31:10]
  br i1 %47, label %48, label %50, !dbg !4688     ; [debug line = 31:10]

; <label>:48                                      ; preds = %35
  %49 = getelementptr inbounds %class.csv* %3, i32 0, i32 4, !dbg !4689 ; [#uses=1 type=%"class.std::vector.3"*] [debug line = 33:4]
  call void @_ZNSt6vectorISsSaISsEE9push_backERKSs(%"class.std::vector.3"* %49, %"class.std::basic_string"* %field), !dbg !4689 ; [debug line = 33:4]
  br label %35, !dbg !4691                        ; [debug line = 34:3]

; <label>:50                                      ; preds = %35
  %51 = getelementptr inbounds %class.csv* %3, i32 0, i32 3, !dbg !4692 ; [#uses=1 type=%"class.std::vector"*] [debug line = 35:3]
  %52 = getelementptr inbounds %class.csv* %3, i32 0, i32 4, !dbg !4692 ; [#uses=1 type=%"class.std::vector.3"*] [debug line = 35:3]
  call void @_ZNSt6vectorIS_ISsSaISsEESaIS1_EE9push_backERKS1_(%"class.std::vector"* %51, %"class.std::vector.3"* %52), !dbg !4692 ; [debug line = 35:3]
  call void @_ZNSt18basic_stringstreamIcSt11char_traitsIcESaIcEED1Ev(%"class.std::basic_stringstream"* %ss), !dbg !4693 ; [debug line = 36:2]
  br label %18, !dbg !4693                        ; [debug line = 36:2]

; <label>:53                                      ; preds = %18
  %54 = getelementptr inbounds %class.csv* %3, i32 0, i32 3, !dbg !4694 ; [#uses=1 type=%"class.std::vector"*] [debug line = 38:8]
  %55 = call i64 @_ZNKSt6vectorIS_ISsSaISsEESaIS1_EE4sizeEv(%"class.std::vector"* %54), !dbg !4694 ; [#uses=1 type=i64] [debug line = 38:8]
  %56 = trunc i64 %55 to i32, !dbg !4694          ; [#uses=1 type=i32] [debug line = 38:8]
  %57 = getelementptr inbounds %class.csv* %3, i32 0, i32 6, !dbg !4694 ; [#uses=1 type=i32*] [debug line = 38:8]
  store i32 %56, i32* %57, align 4, !dbg !4694    ; [debug line = 38:8]
  %58 = getelementptr inbounds %class.csv* %3, i32 0, i32 3, !dbg !4695 ; [#uses=1 type=%"class.std::vector"*] [debug line = 39:9]
  %59 = call %"class.std::vector.3"* @_ZNSt6vectorIS_ISsSaISsEESaIS1_EEixEm(%"class.std::vector"* %58, i64 0), !dbg !4695 ; [#uses=1 type=%"class.std::vector.3"*] [debug line = 39:9]
  %60 = call i64 @_ZNKSt6vectorISsSaISsEE4sizeEv(%"class.std::vector.3"* %59), !dbg !4695 ; [#uses=1 type=i64] [debug line = 39:9]
  %61 = trunc i64 %60 to i32, !dbg !4695          ; [#uses=1 type=i32] [debug line = 39:9]
  %62 = getelementptr inbounds %class.csv* %3, i32 0, i32 5, !dbg !4695 ; [#uses=1 type=i32*] [debug line = 39:9]
  store i32 %61, i32* %62, align 4, !dbg !4695    ; [debug line = 39:9]
  call void @_ZNSsD1Ev(%"class.std::basic_string"* %field), !dbg !4696 ; [debug line = 40:1]
  call void @_ZNSsD1Ev(%"class.std::basic_string"* %line), !dbg !4696 ; [debug line = 40:1]
  ret void, !dbg !4696                            ; [debug line = 40:1]
}

; [#uses=11]
declare %"class.std::basic_string"* @_ZNSsaSERKSs(%"class.std::basic_string"*, %"class.std::basic_string"*)

; [#uses=4]
define linkonce_odr void @_ZStplIcSt11char_traitsIcESaIcEESbIT_T0_T1_ERKS6_S8_(%"class.std::basic_string"* noalias sret %agg.result, %"class.std::basic_string"* %__lhs, %"class.std::basic_string"* %__rhs) nounwind uwtable {
  %1 = alloca %"class.std::basic_string"*, align 8 ; [#uses=2 type=%"class.std::basic_string"**]
  %2 = alloca %"class.std::basic_string"*, align 8 ; [#uses=2 type=%"class.std::basic_string"**]
  %3 = alloca i1                                  ; [#uses=3 type=i1*]
  %4 = alloca i32                                 ; [#uses=1 type=i32*]
  store %"class.std::basic_string"* %__lhs, %"class.std::basic_string"** %1, align 8
  call void @llvm.dbg.declare(metadata !{%"class.std::basic_string"** %1}, metadata !4697), !dbg !4698 ; [debug line = 2305:60] [debug variable = __lhs]
  store %"class.std::basic_string"* %__rhs, %"class.std::basic_string"** %2, align 8
  call void @llvm.dbg.declare(metadata !{%"class.std::basic_string"** %2}, metadata !4699), !dbg !4700 ; [debug line = 2306:53] [debug variable = __rhs]
  store i1 false, i1* %3, !dbg !4701              ; [debug line = 2308:57]
  call void @llvm.dbg.declare(metadata !{%"class.std::basic_string"* %agg.result}, metadata !4703), !dbg !4704 ; [debug line = 2308:45] [debug variable = __str]
  %5 = load %"class.std::basic_string"** %1, align 8, !dbg !4701 ; [#uses=1 type=%"class.std::basic_string"*] [debug line = 2308:57]
  call void @_ZNSsC1ERKSs(%"class.std::basic_string"* %agg.result, %"class.std::basic_string"* %5), !dbg !4701 ; [debug line = 2308:57]
  %6 = load %"class.std::basic_string"** %2, align 8, !dbg !4705 ; [#uses=1 type=%"class.std::basic_string"*] [debug line = 2309:7]
  %7 = call %"class.std::basic_string"* @_ZNSs6appendERKSs(%"class.std::basic_string"* %agg.result, %"class.std::basic_string"* %6), !dbg !4705 ; [#uses=0 type=%"class.std::basic_string"*] [debug line = 2309:7]
  store i1 true, i1* %3, !dbg !4706               ; [debug line = 2310:7]
  store i32 1, i32* %4
  %8 = load i1* %3, !dbg !4707                    ; [#uses=1 type=i1] [debug line = 2311:5]
  br i1 %8, label %10, label %9, !dbg !4707       ; [debug line = 2311:5]

; <label>:9                                       ; preds = %0
  call void @_ZNSsD1Ev(%"class.std::basic_string"* %agg.result), !dbg !4707 ; [debug line = 2311:5]
  br label %10, !dbg !4707                        ; [debug line = 2311:5]

; <label>:10                                      ; preds = %9, %0
  ret void, !dbg !4708                            ; [debug line = 2311:5]
}

; [#uses=2]
declare void @_ZNSt14basic_ifstreamIcSt11char_traitsIcEE4openEPKcSt13_Ios_Openmode(%"class.std::basic_ifstream"*, i8*, i17 zeroext)

; [#uses=5]
declare i8* @_ZNKSs5c_strEv(%"class.std::basic_string"*)

; [#uses=2]
declare %"class.std::basic_istream"* @_ZSt7getlineIcSt11char_traitsIcESaIcEERSt13basic_istreamIT_T0_ES7_RSbIS4_S5_T1_E(%"class.std::basic_istream"*, %"class.std::basic_string"*)

; [#uses=4]
declare i8* @_ZNKSt9basic_iosIcSt11char_traitsIcEEcvPvEv(%"class.std::basic_ios"*)

; [#uses=2]
define linkonce_odr void @_ZNSt6vectorISsSaISsEE5clearEv(%"class.std::vector.3"* %this) nounwind uwtable align 2 {
  %1 = alloca %"class.std::vector.3"*, align 8    ; [#uses=2 type=%"class.std::vector.3"**]
  store %"class.std::vector.3"* %this, %"class.std::vector.3"** %1, align 8
  call void @llvm.dbg.declare(metadata !{%"class.std::vector.3"** %1}, metadata !4709), !dbg !4710 ; [debug line = 1039:7] [debug variable = this]
  %2 = load %"class.std::vector.3"** %1           ; [#uses=2 type=%"class.std::vector.3"*]
  %3 = bitcast %"class.std::vector.3"* %2 to %"struct.std::_Vector_base.4"*, !dbg !4711 ; [#uses=1 type=%"struct.std::_Vector_base.4"*] [debug line = 1040:9]
  %4 = getelementptr inbounds %"struct.std::_Vector_base.4"* %3, i32 0, i32 0, !dbg !4711 ; [#uses=1 type=%"struct.std::_Vector_base<std::basic_string<char>, std::allocator<std::basic_string<char> > >::_Vector_impl"*] [debug line = 1040:9]
  %5 = getelementptr inbounds %"struct.std::_Vector_base<std::basic_string<char>, std::allocator<std::basic_string<char> > >::_Vector_impl"* %4, i32 0, i32 0, !dbg !4711 ; [#uses=1 type=%"class.std::basic_string"**] [debug line = 1040:9]
  %6 = load %"class.std::basic_string"** %5, align 8, !dbg !4711 ; [#uses=1 type=%"class.std::basic_string"*] [debug line = 1040:9]
  call void @_ZNSt6vectorISsSaISsEE15_M_erase_at_endEPSs(%"class.std::vector.3"* %2, %"class.std::basic_string"* %6), !dbg !4711 ; [debug line = 1040:9]
  ret void, !dbg !4713                            ; [debug line = 1040:50]
}

; [#uses=2]
declare void @_ZNSt18basic_stringstreamIcSt11char_traitsIcESaIcEEC1ERKSsSt13_Ios_Openmode(%"class.std::basic_stringstream"*, %"class.std::basic_string"*, i17 zeroext)

; [#uses=4]
define linkonce_odr zeroext i17 @_ZStorSt13_Ios_OpenmodeS_(i17 zeroext %__a, i17 zeroext %__b) nounwind uwtable inlinehint {
  %1 = alloca i17, align 4                        ; [#uses=2 type=i17*]
  %2 = alloca i17, align 4                        ; [#uses=2 type=i17*]
  store i17 %__a, i17* %1, align 4
  call void @llvm.dbg.declare(metadata !{i17* %1}, metadata !4714), !dbg !4715 ; [debug line = 120:27] [debug variable = __a]
  store i17 %__b, i17* %2, align 4
  call void @llvm.dbg.declare(metadata !{i17* %2}, metadata !4716), !dbg !4717 ; [debug line = 120:46] [debug variable = __b]
  %3 = load i17* %1, align 4, !dbg !4718          ; [#uses=1 type=i17] [debug line = 121:5]
  %4 = zext i17 %3 to i32, !dbg !4718             ; [#uses=1 type=i32] [debug line = 121:5]
  %5 = load i17* %2, align 4, !dbg !4718          ; [#uses=1 type=i17] [debug line = 121:5]
  %6 = zext i17 %5 to i32, !dbg !4718             ; [#uses=1 type=i32] [debug line = 121:5]
  %7 = or i32 %4, %6, !dbg !4718                  ; [#uses=1 type=i32] [debug line = 121:5]
  %8 = trunc i32 %7 to i17, !dbg !4718            ; [#uses=1 type=i17] [debug line = 121:5]
  ret i17 %8, !dbg !4718                          ; [debug line = 121:5]
}

; [#uses=2]
declare %"class.std::basic_istream"* @_ZSt7getlineIcSt11char_traitsIcESaIcEERSt13basic_istreamIT_T0_ES7_RSbIS4_S5_T1_ES4_(%"class.std::basic_istream"*, %"class.std::basic_string"*, i8 signext)

; [#uses=2]
define linkonce_odr void @_ZNSt6vectorISsSaISsEE9push_backERKSs(%"class.std::vector.3"* %this, %"class.std::basic_string"* %__x) nounwind uwtable align 2 {
  %1 = alloca %"class.std::vector.3"*, align 8    ; [#uses=2 type=%"class.std::vector.3"**]
  %2 = alloca %"class.std::basic_string"*, align 8 ; [#uses=3 type=%"class.std::basic_string"**]
  %3 = alloca %"class.__gnu_cxx::__normal_iterator.18", align 8 ; [#uses=2 type=%"class.__gnu_cxx::__normal_iterator.18"*]
  store %"class.std::vector.3"* %this, %"class.std::vector.3"** %1, align 8
  call void @llvm.dbg.declare(metadata !{%"class.std::vector.3"** %1}, metadata !4720), !dbg !4721 ; [debug line = 826:7] [debug variable = this]
  store %"class.std::basic_string"* %__x, %"class.std::basic_string"** %2, align 8
  call void @llvm.dbg.declare(metadata !{%"class.std::basic_string"** %2}, metadata !4722), !dbg !4723 ; [debug line = 826:35] [debug variable = __x]
  %4 = load %"class.std::vector.3"** %1           ; [#uses=7 type=%"class.std::vector.3"*]
  %5 = bitcast %"class.std::vector.3"* %4 to %"struct.std::_Vector_base.4"*, !dbg !4724 ; [#uses=1 type=%"struct.std::_Vector_base.4"*] [debug line = 828:2]
  %6 = getelementptr inbounds %"struct.std::_Vector_base.4"* %5, i32 0, i32 0, !dbg !4724 ; [#uses=1 type=%"struct.std::_Vector_base<std::basic_string<char>, std::allocator<std::basic_string<char> > >::_Vector_impl"*] [debug line = 828:2]
  %7 = getelementptr inbounds %"struct.std::_Vector_base<std::basic_string<char>, std::allocator<std::basic_string<char> > >::_Vector_impl"* %6, i32 0, i32 1, !dbg !4724 ; [#uses=1 type=%"class.std::basic_string"**] [debug line = 828:2]
  %8 = load %"class.std::basic_string"** %7, align 8, !dbg !4724 ; [#uses=1 type=%"class.std::basic_string"*] [debug line = 828:2]
  %9 = bitcast %"class.std::vector.3"* %4 to %"struct.std::_Vector_base.4"*, !dbg !4724 ; [#uses=1 type=%"struct.std::_Vector_base.4"*] [debug line = 828:2]
  %10 = getelementptr inbounds %"struct.std::_Vector_base.4"* %9, i32 0, i32 0, !dbg !4724 ; [#uses=1 type=%"struct.std::_Vector_base<std::basic_string<char>, std::allocator<std::basic_string<char> > >::_Vector_impl"*] [debug line = 828:2]
  %11 = getelementptr inbounds %"struct.std::_Vector_base<std::basic_string<char>, std::allocator<std::basic_string<char> > >::_Vector_impl"* %10, i32 0, i32 2, !dbg !4724 ; [#uses=1 type=%"class.std::basic_string"**] [debug line = 828:2]
  %12 = load %"class.std::basic_string"** %11, align 8, !dbg !4724 ; [#uses=1 type=%"class.std::basic_string"*] [debug line = 828:2]
  %13 = icmp ne %"class.std::basic_string"* %8, %12, !dbg !4724 ; [#uses=1 type=i1] [debug line = 828:2]
  br i1 %13, label %14, label %28, !dbg !4724     ; [debug line = 828:2]

; <label>:14                                      ; preds = %0
  %15 = bitcast %"class.std::vector.3"* %4 to %"struct.std::_Vector_base.4"*, !dbg !4726 ; [#uses=1 type=%"struct.std::_Vector_base.4"*] [debug line = 830:6]
  %16 = getelementptr inbounds %"struct.std::_Vector_base.4"* %15, i32 0, i32 0, !dbg !4726 ; [#uses=1 type=%"struct.std::_Vector_base<std::basic_string<char>, std::allocator<std::basic_string<char> > >::_Vector_impl"*] [debug line = 830:6]
  %17 = bitcast %"struct.std::_Vector_base<std::basic_string<char>, std::allocator<std::basic_string<char> > >::_Vector_impl"* %16 to %"class.std::ios_base::Init"*, !dbg !4726 ; [#uses=1 type=%"class.std::ios_base::Init"*] [debug line = 830:6]
  %18 = bitcast %"class.std::vector.3"* %4 to %"struct.std::_Vector_base.4"*, !dbg !4726 ; [#uses=1 type=%"struct.std::_Vector_base.4"*] [debug line = 830:6]
  %19 = getelementptr inbounds %"struct.std::_Vector_base.4"* %18, i32 0, i32 0, !dbg !4726 ; [#uses=1 type=%"struct.std::_Vector_base<std::basic_string<char>, std::allocator<std::basic_string<char> > >::_Vector_impl"*] [debug line = 830:6]
  %20 = getelementptr inbounds %"struct.std::_Vector_base<std::basic_string<char>, std::allocator<std::basic_string<char> > >::_Vector_impl"* %19, i32 0, i32 1, !dbg !4726 ; [#uses=1 type=%"class.std::basic_string"**] [debug line = 830:6]
  %21 = load %"class.std::basic_string"** %20, align 8, !dbg !4726 ; [#uses=1 type=%"class.std::basic_string"*] [debug line = 830:6]
  %22 = load %"class.std::basic_string"** %2, align 8, !dbg !4726 ; [#uses=1 type=%"class.std::basic_string"*] [debug line = 830:6]
  call void @_ZN9__gnu_cxx13new_allocatorISsE9constructEPSsRKSs(%"class.std::ios_base::Init"* %17, %"class.std::basic_string"* %21, %"class.std::basic_string"* %22), !dbg !4726 ; [debug line = 830:6]
  %23 = bitcast %"class.std::vector.3"* %4 to %"struct.std::_Vector_base.4"*, !dbg !4728 ; [#uses=1 type=%"struct.std::_Vector_base.4"*] [debug line = 831:6]
  %24 = getelementptr inbounds %"struct.std::_Vector_base.4"* %23, i32 0, i32 0, !dbg !4728 ; [#uses=1 type=%"struct.std::_Vector_base<std::basic_string<char>, std::allocator<std::basic_string<char> > >::_Vector_impl"*] [debug line = 831:6]
  %25 = getelementptr inbounds %"struct.std::_Vector_base<std::basic_string<char>, std::allocator<std::basic_string<char> > >::_Vector_impl"* %24, i32 0, i32 1, !dbg !4728 ; [#uses=2 type=%"class.std::basic_string"**] [debug line = 831:6]
  %26 = load %"class.std::basic_string"** %25, align 8, !dbg !4728 ; [#uses=1 type=%"class.std::basic_string"*] [debug line = 831:6]
  %27 = getelementptr inbounds %"class.std::basic_string"* %26, i32 1, !dbg !4728 ; [#uses=1 type=%"class.std::basic_string"*] [debug line = 831:6]
  store %"class.std::basic_string"* %27, %"class.std::basic_string"** %25, align 8, !dbg !4728 ; [debug line = 831:6]
  br label %30, !dbg !4729                        ; [debug line = 832:4]

; <label>:28                                      ; preds = %0
  call void @_ZNSt6vectorISsSaISsEE3endEv(%"class.__gnu_cxx::__normal_iterator.18"* sret %3, %"class.std::vector.3"* %4), !dbg !4730 ; [debug line = 834:18]
  %29 = load %"class.std::basic_string"** %2, align 8, !dbg !4730 ; [#uses=1 type=%"class.std::basic_string"*] [debug line = 834:18]
  call void @_ZNSt6vectorISsSaISsEE13_M_insert_auxEN9__gnu_cxx17__normal_iteratorIPSsS1_EERKSs(%"class.std::vector.3"* %4, %"class.__gnu_cxx::__normal_iterator.18"* byval align 8 %3, %"class.std::basic_string"* %29), !dbg !4730 ; [debug line = 834:18]
  br label %30

; <label>:30                                      ; preds = %28, %14
  ret void, !dbg !4731                            ; [debug line = 835:7]
}

; [#uses=2]
define linkonce_odr void @_ZNSt6vectorIS_ISsSaISsEESaIS1_EE9push_backERKS1_(%"class.std::vector"* %this, %"class.std::vector.3"* %__x) nounwind uwtable align 2 {
  %1 = alloca %"class.std::vector"*, align 8      ; [#uses=2 type=%"class.std::vector"**]
  %2 = alloca %"class.std::vector.3"*, align 8    ; [#uses=3 type=%"class.std::vector.3"**]
  %3 = alloca %"class.__gnu_cxx::__normal_iterator", align 8 ; [#uses=2 type=%"class.__gnu_cxx::__normal_iterator"*]
  store %"class.std::vector"* %this, %"class.std::vector"** %1, align 8
  call void @llvm.dbg.declare(metadata !{%"class.std::vector"** %1}, metadata !4732), !dbg !4733 ; [debug line = 826:7] [debug variable = this]
  store %"class.std::vector.3"* %__x, %"class.std::vector.3"** %2, align 8
  call void @llvm.dbg.declare(metadata !{%"class.std::vector.3"** %2}, metadata !4734), !dbg !4735 ; [debug line = 826:35] [debug variable = __x]
  %4 = load %"class.std::vector"** %1             ; [#uses=7 type=%"class.std::vector"*]
  %5 = bitcast %"class.std::vector"* %4 to %"struct.std::_Vector_base"*, !dbg !4736 ; [#uses=1 type=%"struct.std::_Vector_base"*] [debug line = 828:2]
  %6 = getelementptr inbounds %"struct.std::_Vector_base"* %5, i32 0, i32 0, !dbg !4736 ; [#uses=1 type=%"struct.std::_Vector_base<std::vector<std::basic_string<char>, std::allocator<std::basic_string<char> > >, std::allocator<std::vector<std::basic_string<char>, std::allocator<std::basic_string<char> > > > >::_Vector_impl"*] [debug line = 828:2]
  %7 = getelementptr inbounds %"struct.std::_Vector_base<std::vector<std::basic_string<char>, std::allocator<std::basic_string<char> > >, std::allocator<std::vector<std::basic_string<char>, std::allocator<std::basic_string<char> > > > >::_Vector_impl"* %6, i32 0, i32 1, !dbg !4736 ; [#uses=1 type=%"class.std::vector.3"**] [debug line = 828:2]
  %8 = load %"class.std::vector.3"** %7, align 8, !dbg !4736 ; [#uses=1 type=%"class.std::vector.3"*] [debug line = 828:2]
  %9 = bitcast %"class.std::vector"* %4 to %"struct.std::_Vector_base"*, !dbg !4736 ; [#uses=1 type=%"struct.std::_Vector_base"*] [debug line = 828:2]
  %10 = getelementptr inbounds %"struct.std::_Vector_base"* %9, i32 0, i32 0, !dbg !4736 ; [#uses=1 type=%"struct.std::_Vector_base<std::vector<std::basic_string<char>, std::allocator<std::basic_string<char> > >, std::allocator<std::vector<std::basic_string<char>, std::allocator<std::basic_string<char> > > > >::_Vector_impl"*] [debug line = 828:2]
  %11 = getelementptr inbounds %"struct.std::_Vector_base<std::vector<std::basic_string<char>, std::allocator<std::basic_string<char> > >, std::allocator<std::vector<std::basic_string<char>, std::allocator<std::basic_string<char> > > > >::_Vector_impl"* %10, i32 0, i32 2, !dbg !4736 ; [#uses=1 type=%"class.std::vector.3"**] [debug line = 828:2]
  %12 = load %"class.std::vector.3"** %11, align 8, !dbg !4736 ; [#uses=1 type=%"class.std::vector.3"*] [debug line = 828:2]
  %13 = icmp ne %"class.std::vector.3"* %8, %12, !dbg !4736 ; [#uses=1 type=i1] [debug line = 828:2]
  br i1 %13, label %14, label %28, !dbg !4736     ; [debug line = 828:2]

; <label>:14                                      ; preds = %0
  %15 = bitcast %"class.std::vector"* %4 to %"struct.std::_Vector_base"*, !dbg !4738 ; [#uses=1 type=%"struct.std::_Vector_base"*] [debug line = 830:6]
  %16 = getelementptr inbounds %"struct.std::_Vector_base"* %15, i32 0, i32 0, !dbg !4738 ; [#uses=1 type=%"struct.std::_Vector_base<std::vector<std::basic_string<char>, std::allocator<std::basic_string<char> > >, std::allocator<std::vector<std::basic_string<char>, std::allocator<std::basic_string<char> > > > >::_Vector_impl"*] [debug line = 830:6]
  %17 = bitcast %"struct.std::_Vector_base<std::vector<std::basic_string<char>, std::allocator<std::basic_string<char> > >, std::allocator<std::vector<std::basic_string<char>, std::allocator<std::basic_string<char> > > > >::_Vector_impl"* %16 to %"class.std::ios_base::Init"*, !dbg !4738 ; [#uses=1 type=%"class.std::ios_base::Init"*] [debug line = 830:6]
  %18 = bitcast %"class.std::vector"* %4 to %"struct.std::_Vector_base"*, !dbg !4738 ; [#uses=1 type=%"struct.std::_Vector_base"*] [debug line = 830:6]
  %19 = getelementptr inbounds %"struct.std::_Vector_base"* %18, i32 0, i32 0, !dbg !4738 ; [#uses=1 type=%"struct.std::_Vector_base<std::vector<std::basic_string<char>, std::allocator<std::basic_string<char> > >, std::allocator<std::vector<std::basic_string<char>, std::allocator<std::basic_string<char> > > > >::_Vector_impl"*] [debug line = 830:6]
  %20 = getelementptr inbounds %"struct.std::_Vector_base<std::vector<std::basic_string<char>, std::allocator<std::basic_string<char> > >, std::allocator<std::vector<std::basic_string<char>, std::allocator<std::basic_string<char> > > > >::_Vector_impl"* %19, i32 0, i32 1, !dbg !4738 ; [#uses=1 type=%"class.std::vector.3"**] [debug line = 830:6]
  %21 = load %"class.std::vector.3"** %20, align 8, !dbg !4738 ; [#uses=1 type=%"class.std::vector.3"*] [debug line = 830:6]
  %22 = load %"class.std::vector.3"** %2, align 8, !dbg !4738 ; [#uses=1 type=%"class.std::vector.3"*] [debug line = 830:6]
  call void @_ZN9__gnu_cxx13new_allocatorISt6vectorISsSaISsEEE9constructEPS3_RKS3_(%"class.std::ios_base::Init"* %17, %"class.std::vector.3"* %21, %"class.std::vector.3"* %22), !dbg !4738 ; [debug line = 830:6]
  %23 = bitcast %"class.std::vector"* %4 to %"struct.std::_Vector_base"*, !dbg !4740 ; [#uses=1 type=%"struct.std::_Vector_base"*] [debug line = 831:6]
  %24 = getelementptr inbounds %"struct.std::_Vector_base"* %23, i32 0, i32 0, !dbg !4740 ; [#uses=1 type=%"struct.std::_Vector_base<std::vector<std::basic_string<char>, std::allocator<std::basic_string<char> > >, std::allocator<std::vector<std::basic_string<char>, std::allocator<std::basic_string<char> > > > >::_Vector_impl"*] [debug line = 831:6]
  %25 = getelementptr inbounds %"struct.std::_Vector_base<std::vector<std::basic_string<char>, std::allocator<std::basic_string<char> > >, std::allocator<std::vector<std::basic_string<char>, std::allocator<std::basic_string<char> > > > >::_Vector_impl"* %24, i32 0, i32 1, !dbg !4740 ; [#uses=2 type=%"class.std::vector.3"**] [debug line = 831:6]
  %26 = load %"class.std::vector.3"** %25, align 8, !dbg !4740 ; [#uses=1 type=%"class.std::vector.3"*] [debug line = 831:6]
  %27 = getelementptr inbounds %"class.std::vector.3"* %26, i32 1, !dbg !4740 ; [#uses=1 type=%"class.std::vector.3"*] [debug line = 831:6]
  store %"class.std::vector.3"* %27, %"class.std::vector.3"** %25, align 8, !dbg !4740 ; [debug line = 831:6]
  br label %30, !dbg !4741                        ; [debug line = 832:4]

; <label>:28                                      ; preds = %0
  call void @_ZNSt6vectorIS_ISsSaISsEESaIS1_EE3endEv(%"class.__gnu_cxx::__normal_iterator"* sret %3, %"class.std::vector"* %4), !dbg !4742 ; [debug line = 834:18]
  %29 = load %"class.std::vector.3"** %2, align 8, !dbg !4742 ; [#uses=1 type=%"class.std::vector.3"*] [debug line = 834:18]
  call void @_ZNSt6vectorIS_ISsSaISsEESaIS1_EE13_M_insert_auxEN9__gnu_cxx17__normal_iteratorIPS1_S3_EERKS1_(%"class.std::vector"* %4, %"class.__gnu_cxx::__normal_iterator"* byval align 8 %3, %"class.std::vector.3"* %29), !dbg !4742 ; [debug line = 834:18]
  br label %30

; <label>:30                                      ; preds = %28, %14
  ret void, !dbg !4743                            ; [debug line = 835:7]
}

; [#uses=2]
declare void @_ZNSt18basic_stringstreamIcSt11char_traitsIcESaIcEED1Ev(%"class.std::basic_stringstream"*)

; [#uses=10]
define linkonce_odr i64 @_ZNKSt6vectorIS_ISsSaISsEESaIS1_EE4sizeEv(%"class.std::vector"* %this) nounwind uwtable align 2 {
  %1 = alloca %"class.std::vector"*, align 8      ; [#uses=2 type=%"class.std::vector"**]
  store %"class.std::vector"* %this, %"class.std::vector"** %1, align 8
  call void @llvm.dbg.declare(metadata !{%"class.std::vector"** %1}, metadata !4744), !dbg !4746 ; [debug line = 570:7] [debug variable = this]
  %2 = load %"class.std::vector"** %1             ; [#uses=2 type=%"class.std::vector"*]
  %3 = bitcast %"class.std::vector"* %2 to %"struct.std::_Vector_base"*, !dbg !4747 ; [#uses=1 type=%"struct.std::_Vector_base"*] [debug line = 571:9]
  %4 = getelementptr inbounds %"struct.std::_Vector_base"* %3, i32 0, i32 0, !dbg !4747 ; [#uses=1 type=%"struct.std::_Vector_base<std::vector<std::basic_string<char>, std::allocator<std::basic_string<char> > >, std::allocator<std::vector<std::basic_string<char>, std::allocator<std::basic_string<char> > > > >::_Vector_impl"*] [debug line = 571:9]
  %5 = getelementptr inbounds %"struct.std::_Vector_base<std::vector<std::basic_string<char>, std::allocator<std::basic_string<char> > >, std::allocator<std::vector<std::basic_string<char>, std::allocator<std::basic_string<char> > > > >::_Vector_impl"* %4, i32 0, i32 1, !dbg !4747 ; [#uses=1 type=%"class.std::vector.3"**] [debug line = 571:9]
  %6 = load %"class.std::vector.3"** %5, align 8, !dbg !4747 ; [#uses=1 type=%"class.std::vector.3"*] [debug line = 571:9]
  %7 = bitcast %"class.std::vector"* %2 to %"struct.std::_Vector_base"*, !dbg !4747 ; [#uses=1 type=%"struct.std::_Vector_base"*] [debug line = 571:9]
  %8 = getelementptr inbounds %"struct.std::_Vector_base"* %7, i32 0, i32 0, !dbg !4747 ; [#uses=1 type=%"struct.std::_Vector_base<std::vector<std::basic_string<char>, std::allocator<std::basic_string<char> > >, std::allocator<std::vector<std::basic_string<char>, std::allocator<std::basic_string<char> > > > >::_Vector_impl"*] [debug line = 571:9]
  %9 = getelementptr inbounds %"struct.std::_Vector_base<std::vector<std::basic_string<char>, std::allocator<std::basic_string<char> > >, std::allocator<std::vector<std::basic_string<char>, std::allocator<std::basic_string<char> > > > >::_Vector_impl"* %8, i32 0, i32 0, !dbg !4747 ; [#uses=1 type=%"class.std::vector.3"**] [debug line = 571:9]
  %10 = load %"class.std::vector.3"** %9, align 8, !dbg !4747 ; [#uses=1 type=%"class.std::vector.3"*] [debug line = 571:9]
  %11 = ptrtoint %"class.std::vector.3"* %6 to i64, !dbg !4747 ; [#uses=1 type=i64] [debug line = 571:9]
  %12 = ptrtoint %"class.std::vector.3"* %10 to i64, !dbg !4747 ; [#uses=1 type=i64] [debug line = 571:9]
  %13 = sub i64 %11, %12, !dbg !4747              ; [#uses=1 type=i64] [debug line = 571:9]
  %14 = sdiv exact i64 %13, 24, !dbg !4747        ; [#uses=1 type=i64] [debug line = 571:9]
  ret i64 %14, !dbg !4747                         ; [debug line = 571:9]
}

; [#uses=9]
define linkonce_odr %"class.std::vector.3"* @_ZNSt6vectorIS_ISsSaISsEESaIS1_EEixEm(%"class.std::vector"* %this, i64 %__n) nounwind uwtable align 2 {
  %1 = alloca %"class.std::vector"*, align 8      ; [#uses=2 type=%"class.std::vector"**]
  %2 = alloca i64, align 8                        ; [#uses=2 type=i64*]
  store %"class.std::vector"* %this, %"class.std::vector"** %1, align 8
  call void @llvm.dbg.declare(metadata !{%"class.std::vector"** %1}, metadata !4749), !dbg !4750 ; [debug line = 695:7] [debug variable = this]
  store i64 %__n, i64* %2, align 8
  call void @llvm.dbg.declare(metadata !{i64* %2}, metadata !4751), !dbg !4752 ; [debug line = 695:28] [debug variable = __n]
  %3 = load %"class.std::vector"** %1             ; [#uses=1 type=%"class.std::vector"*]
  %4 = bitcast %"class.std::vector"* %3 to %"struct.std::_Vector_base"*, !dbg !4753 ; [#uses=1 type=%"struct.std::_Vector_base"*] [debug line = 696:9]
  %5 = getelementptr inbounds %"struct.std::_Vector_base"* %4, i32 0, i32 0, !dbg !4753 ; [#uses=1 type=%"struct.std::_Vector_base<std::vector<std::basic_string<char>, std::allocator<std::basic_string<char> > >, std::allocator<std::vector<std::basic_string<char>, std::allocator<std::basic_string<char> > > > >::_Vector_impl"*] [debug line = 696:9]
  %6 = getelementptr inbounds %"struct.std::_Vector_base<std::vector<std::basic_string<char>, std::allocator<std::basic_string<char> > >, std::allocator<std::vector<std::basic_string<char>, std::allocator<std::basic_string<char> > > > >::_Vector_impl"* %5, i32 0, i32 0, !dbg !4753 ; [#uses=1 type=%"class.std::vector.3"**] [debug line = 696:9]
  %7 = load %"class.std::vector.3"** %6, align 8, !dbg !4753 ; [#uses=1 type=%"class.std::vector.3"*] [debug line = 696:9]
  %8 = load i64* %2, align 8, !dbg !4753          ; [#uses=1 type=i64] [debug line = 696:9]
  %9 = getelementptr inbounds %"class.std::vector.3"* %7, i64 %8, !dbg !4753 ; [#uses=1 type=%"class.std::vector.3"*] [debug line = 696:9]
  ret %"class.std::vector.3"* %9, !dbg !4753      ; [debug line = 696:9]
}

; [#uses=13]
define linkonce_odr i64 @_ZNKSt6vectorISsSaISsEE4sizeEv(%"class.std::vector.3"* %this) nounwind uwtable align 2 {
  %1 = alloca %"class.std::vector.3"*, align 8    ; [#uses=2 type=%"class.std::vector.3"**]
  store %"class.std::vector.3"* %this, %"class.std::vector.3"** %1, align 8
  call void @llvm.dbg.declare(metadata !{%"class.std::vector.3"** %1}, metadata !4755), !dbg !4756 ; [debug line = 570:7] [debug variable = this]
  %2 = load %"class.std::vector.3"** %1           ; [#uses=2 type=%"class.std::vector.3"*]
  %3 = bitcast %"class.std::vector.3"* %2 to %"struct.std::_Vector_base.4"*, !dbg !4757 ; [#uses=1 type=%"struct.std::_Vector_base.4"*] [debug line = 571:9]
  %4 = getelementptr inbounds %"struct.std::_Vector_base.4"* %3, i32 0, i32 0, !dbg !4757 ; [#uses=1 type=%"struct.std::_Vector_base<std::basic_string<char>, std::allocator<std::basic_string<char> > >::_Vector_impl"*] [debug line = 571:9]
  %5 = getelementptr inbounds %"struct.std::_Vector_base<std::basic_string<char>, std::allocator<std::basic_string<char> > >::_Vector_impl"* %4, i32 0, i32 1, !dbg !4757 ; [#uses=1 type=%"class.std::basic_string"**] [debug line = 571:9]
  %6 = load %"class.std::basic_string"** %5, align 8, !dbg !4757 ; [#uses=1 type=%"class.std::basic_string"*] [debug line = 571:9]
  %7 = bitcast %"class.std::vector.3"* %2 to %"struct.std::_Vector_base.4"*, !dbg !4757 ; [#uses=1 type=%"struct.std::_Vector_base.4"*] [debug line = 571:9]
  %8 = getelementptr inbounds %"struct.std::_Vector_base.4"* %7, i32 0, i32 0, !dbg !4757 ; [#uses=1 type=%"struct.std::_Vector_base<std::basic_string<char>, std::allocator<std::basic_string<char> > >::_Vector_impl"*] [debug line = 571:9]
  %9 = getelementptr inbounds %"struct.std::_Vector_base<std::basic_string<char>, std::allocator<std::basic_string<char> > >::_Vector_impl"* %8, i32 0, i32 0, !dbg !4757 ; [#uses=1 type=%"class.std::basic_string"**] [debug line = 571:9]
  %10 = load %"class.std::basic_string"** %9, align 8, !dbg !4757 ; [#uses=1 type=%"class.std::basic_string"*] [debug line = 571:9]
  %11 = ptrtoint %"class.std::basic_string"* %6 to i64, !dbg !4757 ; [#uses=1 type=i64] [debug line = 571:9]
  %12 = ptrtoint %"class.std::basic_string"* %10 to i64, !dbg !4757 ; [#uses=1 type=i64] [debug line = 571:9]
  %13 = sub i64 %11, %12, !dbg !4757              ; [#uses=1 type=i64] [debug line = 571:9]
  %14 = sdiv exact i64 %13, 8, !dbg !4757         ; [#uses=1 type=i64] [debug line = 571:9]
  ret i64 %14, !dbg !4757                         ; [debug line = 571:9]
}

; [#uses=0]
define void @_ZN3csv8readFileESs(%class.csv* %this, %"class.std::basic_string"* %name) nounwind uwtable align 2 {
  %1 = alloca %class.csv*, align 8                ; [#uses=2 type=%class.csv**]
  %line = alloca %"class.std::basic_string", align 8 ; [#uses=4 type=%"class.std::basic_string"*]
  %field = alloca %"class.std::basic_string", align 8 ; [#uses=4 type=%"class.std::basic_string"*]
  %2 = alloca %"class.std::basic_string", align 8 ; [#uses=3 type=%"class.std::basic_string"*]
  %ss = alloca %"class.std::basic_stringstream", align 8 ; [#uses=3 type=%"class.std::basic_stringstream"*]
  store %class.csv* %this, %class.csv** %1, align 8
  call void @llvm.dbg.declare(metadata !{%class.csv** %1}, metadata !4759), !dbg !4760 ; [debug line = 42:11] [debug variable = this]
  call void @llvm.dbg.declare(metadata !{%"class.std::basic_string"* %name}, metadata !4761), !dbg !4762 ; [debug line = 42:27] [debug variable = name]
  %3 = load %class.csv** %1                       ; [#uses=15 type=%class.csv*]
  call void @llvm.dbg.declare(metadata !{%"class.std::basic_string"* %line}, metadata !4763), !dbg !4765 ; [debug line = 43:9] [debug variable = line]
  call void @_ZNSsC1Ev(%"class.std::basic_string"* %line), !dbg !4766 ; [debug line = 43:20]
  call void @llvm.dbg.declare(metadata !{%"class.std::basic_string"* %field}, metadata !4767), !dbg !4768 ; [debug line = 43:15] [debug variable = field]
  call void @_ZNSsC1Ev(%"class.std::basic_string"* %field), !dbg !4766 ; [debug line = 43:20]
  %4 = getelementptr inbounds %class.csv* %3, i32 0, i32 1, !dbg !4769 ; [#uses=1 type=%"class.std::basic_string"*] [debug line = 45:2]
  %5 = call %"class.std::basic_string"* @_ZNSsaSERKSs(%"class.std::basic_string"* %4, %"class.std::basic_string"* %name), !dbg !4769 ; [#uses=0 type=%"class.std::basic_string"*] [debug line = 45:2]
  %6 = getelementptr inbounds %class.csv* %3, i32 0, i32 1, !dbg !4770 ; [#uses=1 type=%"class.std::basic_string"*] [debug line = 46:2]
  %7 = getelementptr inbounds %class.csv* %3, i32 0, i32 0, !dbg !4771 ; [#uses=1 type=%"class.std::basic_string"*] [debug line = 46:11]
  %8 = getelementptr inbounds %class.csv* %3, i32 0, i32 1, !dbg !4771 ; [#uses=1 type=%"class.std::basic_string"*] [debug line = 46:11]
  call void @_ZStplIcSt11char_traitsIcESaIcEESbIT_T0_T1_ERKS6_S8_(%"class.std::basic_string"* sret %2, %"class.std::basic_string"* %7, %"class.std::basic_string"* %8), !dbg !4771 ; [debug line = 46:11]
  %9 = call %"class.std::basic_string"* @_ZNSsaSERKSs(%"class.std::basic_string"* %6, %"class.std::basic_string"* %2), !dbg !4771 ; [#uses=0 type=%"class.std::basic_string"*] [debug line = 46:11]
  call void @_ZNSsD1Ev(%"class.std::basic_string"* %2), !dbg !4771 ; [debug line = 46:11]
  %10 = getelementptr inbounds %class.csv* %3, i32 0, i32 2, !dbg !4772 ; [#uses=1 type=%"class.std::basic_ifstream"*] [debug line = 47:2]
  %11 = getelementptr inbounds %class.csv* %3, i32 0, i32 1, !dbg !4773 ; [#uses=1 type=%"class.std::basic_string"*] [debug line = 47:16]
  %12 = call i8* @_ZNKSs5c_strEv(%"class.std::basic_string"* %11), !dbg !4773 ; [#uses=1 type=i8*] [debug line = 47:16]
  call void @_ZNSt14basic_ifstreamIcSt11char_traitsIcEE4openEPKcSt13_Ios_Openmode(%"class.std::basic_ifstream"* %10, i8* %12, i17 zeroext 8), !dbg !4773 ; [debug line = 47:16]
  br label %13, !dbg !4774                        ; [debug line = 49:2]

; <label>:13                                      ; preds = %45, %0
  %14 = getelementptr inbounds %class.csv* %3, i32 0, i32 2, !dbg !4775 ; [#uses=1 type=%"class.std::basic_ifstream"*] [debug line = 49:9]
  %15 = bitcast %"class.std::basic_ifstream"* %14 to %"class.std::basic_istream"*, !dbg !4775 ; [#uses=1 type=%"class.std::basic_istream"*] [debug line = 49:9]
  %16 = call %"class.std::basic_istream"* @_ZSt7getlineIcSt11char_traitsIcESaIcEERSt13basic_istreamIT_T0_ES7_RSbIS4_S5_T1_E(%"class.std::basic_istream"* %15, %"class.std::basic_string"* %line), !dbg !4775 ; [#uses=2 type=%"class.std::basic_istream"*] [debug line = 49:9]
  %17 = bitcast %"class.std::basic_istream"* %16 to i8**, !dbg !4775 ; [#uses=1 type=i8**] [debug line = 49:9]
  %18 = load i8** %17, !dbg !4775                 ; [#uses=1 type=i8*] [debug line = 49:9]
  %19 = getelementptr i8* %18, i64 -24, !dbg !4775 ; [#uses=1 type=i8*] [debug line = 49:9]
  %20 = bitcast i8* %19 to i64*, !dbg !4775       ; [#uses=1 type=i64*] [debug line = 49:9]
  %21 = load i64* %20, !dbg !4775                 ; [#uses=1 type=i64] [debug line = 49:9]
  %22 = bitcast %"class.std::basic_istream"* %16 to i8*, !dbg !4775 ; [#uses=1 type=i8*] [debug line = 49:9]
  %23 = getelementptr i8* %22, i64 %21, !dbg !4775 ; [#uses=1 type=i8*] [debug line = 49:9]
  %24 = bitcast i8* %23 to %"class.std::basic_ios"*, !dbg !4775 ; [#uses=1 type=%"class.std::basic_ios"*] [debug line = 49:9]
  %25 = call i8* @_ZNKSt9basic_iosIcSt11char_traitsIcEEcvPvEv(%"class.std::basic_ios"* %24), !dbg !4775 ; [#uses=1 type=i8*] [debug line = 49:9]
  %26 = icmp ne i8* %25, null, !dbg !4775         ; [#uses=1 type=i1] [debug line = 49:9]
  br i1 %26, label %27, label %48, !dbg !4775     ; [debug line = 49:9]

; <label>:27                                      ; preds = %13
  %28 = getelementptr inbounds %class.csv* %3, i32 0, i32 4, !dbg !4776 ; [#uses=1 type=%"class.std::vector.3"*] [debug line = 51:3]
  call void @_ZNSt6vectorISsSaISsEE5clearEv(%"class.std::vector.3"* %28), !dbg !4776 ; [debug line = 51:3]
  call void @llvm.dbg.declare(metadata !{%"class.std::basic_stringstream"* %ss}, metadata !4778), !dbg !4779 ; [debug line = 52:16] [debug variable = ss]
  %29 = call zeroext i17 @_ZStorSt13_Ios_OpenmodeS_(i17 zeroext 16, i17 zeroext 8), !dbg !4780 ; [#uses=1 type=i17] [debug line = 52:24]
  call void @_ZNSt18basic_stringstreamIcSt11char_traitsIcESaIcEEC1ERKSsSt13_Ios_Openmode(%"class.std::basic_stringstream"* %ss, %"class.std::basic_string"* %line, i17 zeroext %29), !dbg !4780 ; [debug line = 52:24]
  br label %30, !dbg !4781                        ; [debug line = 54:3]

; <label>:30                                      ; preds = %43, %27
  %31 = bitcast %"class.std::basic_stringstream"* %ss to %"class.std::basic_istream"*, !dbg !4782 ; [#uses=1 type=%"class.std::basic_istream"*] [debug line = 54:10]
  %32 = call %"class.std::basic_istream"* @_ZSt7getlineIcSt11char_traitsIcESaIcEERSt13basic_istreamIT_T0_ES7_RSbIS4_S5_T1_ES4_(%"class.std::basic_istream"* %31, %"class.std::basic_string"* %field, i8 signext 44), !dbg !4782 ; [#uses=2 type=%"class.std::basic_istream"*] [debug line = 54:10]
  %33 = bitcast %"class.std::basic_istream"* %32 to i8**, !dbg !4782 ; [#uses=1 type=i8**] [debug line = 54:10]
  %34 = load i8** %33, !dbg !4782                 ; [#uses=1 type=i8*] [debug line = 54:10]
  %35 = getelementptr i8* %34, i64 -24, !dbg !4782 ; [#uses=1 type=i8*] [debug line = 54:10]
  %36 = bitcast i8* %35 to i64*, !dbg !4782       ; [#uses=1 type=i64*] [debug line = 54:10]
  %37 = load i64* %36, !dbg !4782                 ; [#uses=1 type=i64] [debug line = 54:10]
  %38 = bitcast %"class.std::basic_istream"* %32 to i8*, !dbg !4782 ; [#uses=1 type=i8*] [debug line = 54:10]
  %39 = getelementptr i8* %38, i64 %37, !dbg !4782 ; [#uses=1 type=i8*] [debug line = 54:10]
  %40 = bitcast i8* %39 to %"class.std::basic_ios"*, !dbg !4782 ; [#uses=1 type=%"class.std::basic_ios"*] [debug line = 54:10]
  %41 = call i8* @_ZNKSt9basic_iosIcSt11char_traitsIcEEcvPvEv(%"class.std::basic_ios"* %40), !dbg !4782 ; [#uses=1 type=i8*] [debug line = 54:10]
  %42 = icmp ne i8* %41, null, !dbg !4782         ; [#uses=1 type=i1] [debug line = 54:10]
  br i1 %42, label %43, label %45, !dbg !4782     ; [debug line = 54:10]

; <label>:43                                      ; preds = %30
  %44 = getelementptr inbounds %class.csv* %3, i32 0, i32 4, !dbg !4783 ; [#uses=1 type=%"class.std::vector.3"*] [debug line = 56:4]
  call void @_ZNSt6vectorISsSaISsEE9push_backERKSs(%"class.std::vector.3"* %44, %"class.std::basic_string"* %field), !dbg !4783 ; [debug line = 56:4]
  br label %30, !dbg !4785                        ; [debug line = 57:3]

; <label>:45                                      ; preds = %30
  %46 = getelementptr inbounds %class.csv* %3, i32 0, i32 3, !dbg !4786 ; [#uses=1 type=%"class.std::vector"*] [debug line = 58:3]
  %47 = getelementptr inbounds %class.csv* %3, i32 0, i32 4, !dbg !4786 ; [#uses=1 type=%"class.std::vector.3"*] [debug line = 58:3]
  call void @_ZNSt6vectorIS_ISsSaISsEESaIS1_EE9push_backERKS1_(%"class.std::vector"* %46, %"class.std::vector.3"* %47), !dbg !4786 ; [debug line = 58:3]
  call void @_ZNSt18basic_stringstreamIcSt11char_traitsIcESaIcEED1Ev(%"class.std::basic_stringstream"* %ss), !dbg !4787 ; [debug line = 59:2]
  br label %13, !dbg !4787                        ; [debug line = 59:2]

; <label>:48                                      ; preds = %13
  %49 = getelementptr inbounds %class.csv* %3, i32 0, i32 3, !dbg !4788 ; [#uses=1 type=%"class.std::vector"*] [debug line = 61:8]
  %50 = call i64 @_ZNKSt6vectorIS_ISsSaISsEESaIS1_EE4sizeEv(%"class.std::vector"* %49), !dbg !4788 ; [#uses=1 type=i64] [debug line = 61:8]
  %51 = trunc i64 %50 to i32, !dbg !4788          ; [#uses=1 type=i32] [debug line = 61:8]
  %52 = getelementptr inbounds %class.csv* %3, i32 0, i32 6, !dbg !4788 ; [#uses=1 type=i32*] [debug line = 61:8]
  store i32 %51, i32* %52, align 4, !dbg !4788    ; [debug line = 61:8]
  %53 = getelementptr inbounds %class.csv* %3, i32 0, i32 3, !dbg !4789 ; [#uses=1 type=%"class.std::vector"*] [debug line = 62:9]
  %54 = call %"class.std::vector.3"* @_ZNSt6vectorIS_ISsSaISsEESaIS1_EEixEm(%"class.std::vector"* %53, i64 0), !dbg !4789 ; [#uses=1 type=%"class.std::vector.3"*] [debug line = 62:9]
  %55 = call i64 @_ZNKSt6vectorISsSaISsEE4sizeEv(%"class.std::vector.3"* %54), !dbg !4789 ; [#uses=1 type=i64] [debug line = 62:9]
  %56 = trunc i64 %55 to i32, !dbg !4789          ; [#uses=1 type=i32] [debug line = 62:9]
  %57 = getelementptr inbounds %class.csv* %3, i32 0, i32 5, !dbg !4789 ; [#uses=1 type=i32*] [debug line = 62:9]
  store i32 %56, i32* %57, align 4, !dbg !4789    ; [debug line = 62:9]
  call void @_ZNSsD1Ev(%"class.std::basic_string"* %field), !dbg !4790 ; [debug line = 63:1]
  call void @_ZNSsD1Ev(%"class.std::basic_string"* %line), !dbg !4790 ; [debug line = 63:1]
  ret void, !dbg !4790                            ; [debug line = 63:1]
}

; [#uses=0]
define i32 @_ZN3csv6getRowEv(%class.csv* %this) nounwind uwtable align 2 {
  %1 = alloca %class.csv*, align 8                ; [#uses=2 type=%class.csv**]
  store %class.csv* %this, %class.csv** %1, align 8
  call void @llvm.dbg.declare(metadata !{%class.csv** %1}, metadata !4791), !dbg !4792 ; [debug line = 65:10] [debug variable = this]
  %2 = load %class.csv** %1                       ; [#uses=1 type=%class.csv*]
  %3 = getelementptr inbounds %class.csv* %2, i32 0, i32 6, !dbg !4793 ; [#uses=1 type=i32*] [debug line = 66:2]
  %4 = load i32* %3, align 4, !dbg !4793          ; [#uses=1 type=i32] [debug line = 66:2]
  ret i32 %4, !dbg !4793                          ; [debug line = 66:2]
}

; [#uses=0]
define i32 @_ZN3csv7getCollEv(%class.csv* %this) nounwind uwtable align 2 {
  %1 = alloca %class.csv*, align 8                ; [#uses=2 type=%class.csv**]
  store %class.csv* %this, %class.csv** %1, align 8
  call void @llvm.dbg.declare(metadata !{%class.csv** %1}, metadata !4795), !dbg !4796 ; [debug line = 69:10] [debug variable = this]
  %2 = load %class.csv** %1                       ; [#uses=1 type=%class.csv*]
  %3 = getelementptr inbounds %class.csv* %2, i32 0, i32 5, !dbg !4797 ; [#uses=1 type=i32*] [debug line = 70:2]
  %4 = load i32* %3, align 4, !dbg !4797          ; [#uses=1 type=i32] [debug line = 70:2]
  ret i32 %4, !dbg !4797                          ; [debug line = 70:2]
}

; [#uses=0]
define float @_ZN3csv4readEii(%class.csv* %this, i32 %inRow, i32 %inColl) nounwind uwtable align 2 {
  %1 = alloca %class.csv*, align 8                ; [#uses=2 type=%class.csv**]
  %2 = alloca i32, align 4                        ; [#uses=2 type=i32*]
  %3 = alloca i32, align 4                        ; [#uses=2 type=i32*]
  store %class.csv* %this, %class.csv** %1, align 8
  call void @llvm.dbg.declare(metadata !{%class.csv** %1}, metadata !4799), !dbg !4800 ; [debug line = 73:12] [debug variable = this]
  store i32 %inRow, i32* %2, align 4
  call void @llvm.dbg.declare(metadata !{i32* %2}, metadata !4801), !dbg !4802 ; [debug line = 73:21] [debug variable = inRow]
  store i32 %inColl, i32* %3, align 4
  call void @llvm.dbg.declare(metadata !{i32* %3}, metadata !4803), !dbg !4804 ; [debug line = 73:32] [debug variable = inColl]
  %4 = load %class.csv** %1                       ; [#uses=1 type=%class.csv*]
  %5 = getelementptr inbounds %class.csv* %4, i32 0, i32 3, !dbg !4805 ; [#uses=1 type=%"class.std::vector"*] [debug line = 77:14]
  %6 = load i32* %2, align 4, !dbg !4805          ; [#uses=1 type=i32] [debug line = 77:14]
  %7 = sext i32 %6 to i64, !dbg !4805             ; [#uses=1 type=i64] [debug line = 77:14]
  %8 = call %"class.std::vector.3"* @_ZNSt6vectorIS_ISsSaISsEESaIS1_EEixEm(%"class.std::vector"* %5, i64 %7), !dbg !4805 ; [#uses=1 type=%"class.std::vector.3"*] [debug line = 77:14]
  %9 = load i32* %3, align 4, !dbg !4805          ; [#uses=1 type=i32] [debug line = 77:14]
  %10 = sext i32 %9 to i64, !dbg !4805            ; [#uses=1 type=i64] [debug line = 77:14]
  %11 = call %"class.std::basic_string"* @_ZNSt6vectorISsSaISsEEixEm(%"class.std::vector.3"* %8, i64 %10), !dbg !4805 ; [#uses=1 type=%"class.std::basic_string"*] [debug line = 77:14]
  %12 = call i8* @_ZNKSs5c_strEv(%"class.std::basic_string"* %11), !dbg !4805 ; [#uses=1 type=i8*] [debug line = 77:14]
  %13 = call double @atof(i8* %12) nounwind readonly, !dbg !4805 ; [#uses=1 type=double] [debug line = 77:14]
  %14 = fptrunc double %13 to float, !dbg !4805   ; [#uses=1 type=float] [debug line = 77:14]
  ret float %14, !dbg !4805                       ; [debug line = 77:14]
}

; [#uses=1]
declare double @atof(i8*) nounwind readonly

; [#uses=5]
define linkonce_odr %"class.std::basic_string"* @_ZNSt6vectorISsSaISsEEixEm(%"class.std::vector.3"* %this, i64 %__n) nounwind uwtable align 2 {
  %1 = alloca %"class.std::vector.3"*, align 8    ; [#uses=2 type=%"class.std::vector.3"**]
  %2 = alloca i64, align 8                        ; [#uses=2 type=i64*]
  store %"class.std::vector.3"* %this, %"class.std::vector.3"** %1, align 8
  call void @llvm.dbg.declare(metadata !{%"class.std::vector.3"** %1}, metadata !4807), !dbg !4808 ; [debug line = 695:7] [debug variable = this]
  store i64 %__n, i64* %2, align 8
  call void @llvm.dbg.declare(metadata !{i64* %2}, metadata !4809), !dbg !4810 ; [debug line = 695:28] [debug variable = __n]
  %3 = load %"class.std::vector.3"** %1           ; [#uses=1 type=%"class.std::vector.3"*]
  %4 = bitcast %"class.std::vector.3"* %3 to %"struct.std::_Vector_base.4"*, !dbg !4811 ; [#uses=1 type=%"struct.std::_Vector_base.4"*] [debug line = 696:9]
  %5 = getelementptr inbounds %"struct.std::_Vector_base.4"* %4, i32 0, i32 0, !dbg !4811 ; [#uses=1 type=%"struct.std::_Vector_base<std::basic_string<char>, std::allocator<std::basic_string<char> > >::_Vector_impl"*] [debug line = 696:9]
  %6 = getelementptr inbounds %"struct.std::_Vector_base<std::basic_string<char>, std::allocator<std::basic_string<char> > >::_Vector_impl"* %5, i32 0, i32 0, !dbg !4811 ; [#uses=1 type=%"class.std::basic_string"**] [debug line = 696:9]
  %7 = load %"class.std::basic_string"** %6, align 8, !dbg !4811 ; [#uses=1 type=%"class.std::basic_string"*] [debug line = 696:9]
  %8 = load i64* %2, align 8, !dbg !4811          ; [#uses=1 type=i64] [debug line = 696:9]
  %9 = getelementptr inbounds %"class.std::basic_string"* %7, i64 %8, !dbg !4811 ; [#uses=1 type=%"class.std::basic_string"*] [debug line = 696:9]
  ret %"class.std::basic_string"* %9, !dbg !4811  ; [debug line = 696:9]
}

; [#uses=0]
define void @_ZN3csv9writeFileESs(%class.csv* %this, %"class.std::basic_string"* %name) nounwind uwtable align 2 {
  %1 = alloca %class.csv*, align 8                ; [#uses=2 type=%class.csv**]
  %filewrite = alloca %"class.std::basic_ofstream", align 8 ; [#uses=6 type=%"class.std::basic_ofstream"*]
  %2 = alloca %"class.std::basic_string", align 8 ; [#uses=3 type=%"class.std::basic_string"*]
  %i = alloca i64, align 8                        ; [#uses=7 type=i64*]
  %j = alloca i64, align 8                        ; [#uses=7 type=i64*]
  store %class.csv* %this, %class.csv** %1, align 8
  call void @llvm.dbg.declare(metadata !{%class.csv** %1}, metadata !4813), !dbg !4814 ; [debug line = 80:11] [debug variable = this]
  call void @llvm.dbg.declare(metadata !{%"class.std::basic_string"* %name}, metadata !4815), !dbg !4816 ; [debug line = 80:28] [debug variable = name]
  %3 = load %class.csv** %1                       ; [#uses=6 type=%class.csv*]
  call void @llvm.dbg.declare(metadata !{%"class.std::basic_ofstream"* %filewrite}, metadata !4817), !dbg !4847 ; [debug line = 81:11] [debug variable = filewrite]
  call void @_ZNSt14basic_ofstreamIcSt11char_traitsIcEEC1Ev(%"class.std::basic_ofstream"* %filewrite), !dbg !4848 ; [debug line = 81:20]
  %4 = getelementptr inbounds %class.csv* %3, i32 0, i32 0, !dbg !4849 ; [#uses=1 type=%"class.std::basic_string"*] [debug line = 82:7]
  call void @_ZStplIcSt11char_traitsIcESaIcEESbIT_T0_T1_ERKS6_S8_(%"class.std::basic_string"* sret %2, %"class.std::basic_string"* %4, %"class.std::basic_string"* %name), !dbg !4849 ; [debug line = 82:7]
  %5 = call %"class.std::basic_string"* @_ZNSsaSERKSs(%"class.std::basic_string"* %name, %"class.std::basic_string"* %2), !dbg !4849 ; [#uses=0 type=%"class.std::basic_string"*] [debug line = 82:7]
  call void @_ZNSsD1Ev(%"class.std::basic_string"* %2), !dbg !4849 ; [debug line = 82:7]
  %6 = call i8* @_ZNKSs5c_strEv(%"class.std::basic_string"* %name), !dbg !4850 ; [#uses=1 type=i8*] [debug line = 83:17]
  %7 = call zeroext i17 @_ZStorSt13_Ios_OpenmodeS_(i17 zeroext 16, i17 zeroext 32), !dbg !4850 ; [#uses=1 type=i17] [debug line = 83:17]
  call void @_ZNSt14basic_ofstreamIcSt11char_traitsIcEE4openEPKcSt13_Ios_Openmode(%"class.std::basic_ofstream"* %filewrite, i8* %6, i17 zeroext %7), !dbg !4850 ; [debug line = 83:17]
  call void @llvm.dbg.declare(metadata !{i64* %i}, metadata !4851), !dbg !4853 ; [debug line = 85:14] [debug variable = i]
  store i64 0, i64* %i, align 8, !dbg !4854       ; [debug line = 85:19]
  br label %8, !dbg !4854                         ; [debug line = 85:19]

; <label>:8                                       ; preds = %51, %0
  %9 = load i64* %i, align 8, !dbg !4854          ; [#uses=1 type=i64] [debug line = 85:19]
  %10 = getelementptr inbounds %class.csv* %3, i32 0, i32 3, !dbg !4855 ; [#uses=1 type=%"class.std::vector"*] [debug line = 85:23]
  %11 = call i64 @_ZNKSt6vectorIS_ISsSaISsEESaIS1_EE4sizeEv(%"class.std::vector"* %10), !dbg !4855 ; [#uses=1 type=i64] [debug line = 85:23]
  %12 = icmp ult i64 %9, %11, !dbg !4855          ; [#uses=1 type=i1] [debug line = 85:23]
  br i1 %12, label %13, label %54, !dbg !4855     ; [debug line = 85:23]

; <label>:13                                      ; preds = %8
  call void @llvm.dbg.declare(metadata !{i64* %j}, metadata !4856), !dbg !4859 ; [debug line = 87:15] [debug variable = j]
  store i64 0, i64* %j, align 8, !dbg !4860       ; [debug line = 87:20]
  br label %14, !dbg !4860                        ; [debug line = 87:20]

; <label>:14                                      ; preds = %45, %13
  %15 = load i64* %j, align 8, !dbg !4860         ; [#uses=1 type=i64] [debug line = 87:20]
  %16 = getelementptr inbounds %class.csv* %3, i32 0, i32 3, !dbg !4861 ; [#uses=1 type=%"class.std::vector"*] [debug line = 87:24]
  %17 = load i64* %i, align 8, !dbg !4861         ; [#uses=1 type=i64] [debug line = 87:24]
  %18 = call %"class.std::vector.3"* @_ZNSt6vectorIS_ISsSaISsEESaIS1_EEixEm(%"class.std::vector"* %16, i64 %17), !dbg !4861 ; [#uses=1 type=%"class.std::vector.3"*] [debug line = 87:24]
  %19 = call i64 @_ZNKSt6vectorISsSaISsEE4sizeEv(%"class.std::vector.3"* %18), !dbg !4861 ; [#uses=1 type=i64] [debug line = 87:24]
  %20 = icmp ult i64 %15, %19, !dbg !4861         ; [#uses=1 type=i1] [debug line = 87:24]
  br i1 %20, label %21, label %48, !dbg !4861     ; [debug line = 87:24]

; <label>:21                                      ; preds = %14
  %22 = load i64* %j, align 8, !dbg !4862         ; [#uses=1 type=i64] [debug line = 89:4]
  %23 = getelementptr inbounds %class.csv* %3, i32 0, i32 3, !dbg !4864 ; [#uses=1 type=%"class.std::vector"*] [debug line = 89:11]
  %24 = call i64 @_ZNKSt6vectorIS_ISsSaISsEESaIS1_EE4sizeEv(%"class.std::vector"* %23), !dbg !4864 ; [#uses=1 type=i64] [debug line = 89:11]
  %25 = sub i64 %24, 1, !dbg !4864                ; [#uses=1 type=i64] [debug line = 89:11]
  %26 = icmp eq i64 %22, %25, !dbg !4864          ; [#uses=1 type=i1] [debug line = 89:11]
  br i1 %26, label %27, label %35, !dbg !4864     ; [debug line = 89:11]

; <label>:27                                      ; preds = %21
  %28 = bitcast %"class.std::basic_ofstream"* %filewrite to %"class.std::basic_ostream"*, !dbg !4865 ; [#uses=1 type=%"class.std::basic_ostream"*] [debug line = 90:5]
  %29 = getelementptr inbounds %class.csv* %3, i32 0, i32 3, !dbg !4866 ; [#uses=1 type=%"class.std::vector"*] [debug line = 90:18]
  %30 = load i64* %i, align 8, !dbg !4866         ; [#uses=1 type=i64] [debug line = 90:18]
  %31 = call %"class.std::vector.3"* @_ZNSt6vectorIS_ISsSaISsEESaIS1_EEixEm(%"class.std::vector"* %29, i64 %30), !dbg !4866 ; [#uses=1 type=%"class.std::vector.3"*] [debug line = 90:18]
  %32 = load i64* %j, align 8, !dbg !4866         ; [#uses=1 type=i64] [debug line = 90:18]
  %33 = call %"class.std::basic_string"* @_ZNSt6vectorISsSaISsEEixEm(%"class.std::vector.3"* %31, i64 %32), !dbg !4866 ; [#uses=1 type=%"class.std::basic_string"*] [debug line = 90:18]
  %34 = call %"class.std::basic_ostream"* @_ZStlsIcSt11char_traitsIcESaIcEERSt13basic_ostreamIT_T0_ES7_RKSbIS4_S5_T1_E(%"class.std::basic_ostream"* %28, %"class.std::basic_string"* %33), !dbg !4866 ; [#uses=0 type=%"class.std::basic_ostream"*] [debug line = 90:18]
  br label %44, !dbg !4866                        ; [debug line = 90:18]

; <label>:35                                      ; preds = %21
  %36 = bitcast %"class.std::basic_ofstream"* %filewrite to %"class.std::basic_ostream"*, !dbg !4867 ; [#uses=1 type=%"class.std::basic_ostream"*] [debug line = 92:5]
  %37 = getelementptr inbounds %class.csv* %3, i32 0, i32 3, !dbg !4868 ; [#uses=1 type=%"class.std::vector"*] [debug line = 92:18]
  %38 = load i64* %i, align 8, !dbg !4868         ; [#uses=1 type=i64] [debug line = 92:18]
  %39 = call %"class.std::vector.3"* @_ZNSt6vectorIS_ISsSaISsEESaIS1_EEixEm(%"class.std::vector"* %37, i64 %38), !dbg !4868 ; [#uses=1 type=%"class.std::vector.3"*] [debug line = 92:18]
  %40 = load i64* %j, align 8, !dbg !4868         ; [#uses=1 type=i64] [debug line = 92:18]
  %41 = call %"class.std::basic_string"* @_ZNSt6vectorISsSaISsEEixEm(%"class.std::vector.3"* %39, i64 %40), !dbg !4868 ; [#uses=1 type=%"class.std::basic_string"*] [debug line = 92:18]
  %42 = call %"class.std::basic_ostream"* @_ZStlsIcSt11char_traitsIcESaIcEERSt13basic_ostreamIT_T0_ES7_RKSbIS4_S5_T1_E(%"class.std::basic_ostream"* %36, %"class.std::basic_string"* %41), !dbg !4868 ; [#uses=1 type=%"class.std::basic_ostream"*] [debug line = 92:18]
  %43 = call %"class.std::basic_ostream"* @_ZStlsISt11char_traitsIcEERSt13basic_ostreamIcT_ES5_PKc(%"class.std::basic_ostream"* %42, i8* getelementptr inbounds ([2 x i8]* @.str, i32 0, i32 0)), !dbg !4868 ; [#uses=0 type=%"class.std::basic_ostream"*] [debug line = 92:18]
  br label %44

; <label>:44                                      ; preds = %35, %27
  br label %45, !dbg !4869                        ; [debug line = 94:3]

; <label>:45                                      ; preds = %44
  %46 = load i64* %j, align 8, !dbg !4870         ; [#uses=1 type=i64] [debug line = 87:41]
  %47 = add i64 %46, 1, !dbg !4870                ; [#uses=1 type=i64] [debug line = 87:41]
  store i64 %47, i64* %j, align 8, !dbg !4870     ; [debug line = 87:41]
  br label %14, !dbg !4870                        ; [debug line = 87:41]

; <label>:48                                      ; preds = %14
  %49 = bitcast %"class.std::basic_ofstream"* %filewrite to %"class.std::basic_ostream"*, !dbg !4871 ; [#uses=1 type=%"class.std::basic_ostream"*] [debug line = 95:3]
  %50 = call %"class.std::basic_ostream"* @_ZStlsISt11char_traitsIcEERSt13basic_ostreamIcT_ES5_PKc(%"class.std::basic_ostream"* %49, i8* getelementptr inbounds ([2 x i8]* @.str1, i32 0, i32 0)), !dbg !4871 ; [#uses=0 type=%"class.std::basic_ostream"*] [debug line = 95:3]
  br label %51, !dbg !4872                        ; [debug line = 96:2]

; <label>:51                                      ; preds = %48
  %52 = load i64* %i, align 8, !dbg !4873         ; [#uses=1 type=i64] [debug line = 85:37]
  %53 = add i64 %52, 1, !dbg !4873                ; [#uses=1 type=i64] [debug line = 85:37]
  store i64 %53, i64* %i, align 8, !dbg !4873     ; [debug line = 85:37]
  br label %8, !dbg !4873                         ; [debug line = 85:37]

; <label>:54                                      ; preds = %8
  call void @_ZNSt14basic_ofstreamIcSt11char_traitsIcEED1Ev(%"class.std::basic_ofstream"* %filewrite), !dbg !4874 ; [debug line = 97:1]
  ret void, !dbg !4874                            ; [debug line = 97:1]
}

; [#uses=2]
declare void @_ZNSt14basic_ofstreamIcSt11char_traitsIcEEC1Ev(%"class.std::basic_ofstream"*)

; [#uses=2]
declare void @_ZNSt14basic_ofstreamIcSt11char_traitsIcEE4openEPKcSt13_Ios_Openmode(%"class.std::basic_ofstream"*, i8*, i17 zeroext)

; [#uses=4]
declare %"class.std::basic_ostream"* @_ZStlsIcSt11char_traitsIcESaIcEERSt13basic_ostreamIT_T0_ES7_RKSbIS4_S5_T1_E(%"class.std::basic_ostream"*, %"class.std::basic_string"*)

; [#uses=4]
declare %"class.std::basic_ostream"* @_ZStlsISt11char_traitsIcEERSt13basic_ostreamIcT_ES5_PKc(%"class.std::basic_ostream"*, i8*)

; [#uses=2]
declare void @_ZNSt14basic_ofstreamIcSt11char_traitsIcEED1Ev(%"class.std::basic_ofstream"*)

; [#uses=0]
define void @_ZN3csv9writeFileEv(%class.csv* %this) nounwind uwtable align 2 {
  %1 = alloca %class.csv*, align 8                ; [#uses=2 type=%class.csv**]
  %filewrite = alloca %"class.std::basic_ofstream", align 8 ; [#uses=6 type=%"class.std::basic_ofstream"*]
  %2 = alloca %"class.std::basic_string", align 8 ; [#uses=3 type=%"class.std::basic_string"*]
  %i = alloca i64, align 8                        ; [#uses=7 type=i64*]
  %j = alloca i64, align 8                        ; [#uses=7 type=i64*]
  store %class.csv* %this, %class.csv** %1, align 8
  call void @llvm.dbg.declare(metadata !{%class.csv** %1}, metadata !4875), !dbg !4876 ; [debug line = 99:11] [debug variable = this]
  %3 = load %class.csv** %1                       ; [#uses=9 type=%class.csv*]
  call void @llvm.dbg.declare(metadata !{%"class.std::basic_ofstream"* %filewrite}, metadata !4877), !dbg !4879 ; [debug line = 100:11] [debug variable = filewrite]
  call void @_ZNSt14basic_ofstreamIcSt11char_traitsIcEEC1Ev(%"class.std::basic_ofstream"* %filewrite), !dbg !4880 ; [debug line = 100:20]
  %4 = getelementptr inbounds %class.csv* %3, i32 0, i32 1, !dbg !4881 ; [#uses=1 type=%"class.std::basic_string"*] [debug line = 101:2]
  %5 = getelementptr inbounds %class.csv* %3, i32 0, i32 0, !dbg !4882 ; [#uses=1 type=%"class.std::basic_string"*] [debug line = 101:11]
  %6 = getelementptr inbounds %class.csv* %3, i32 0, i32 1, !dbg !4882 ; [#uses=1 type=%"class.std::basic_string"*] [debug line = 101:11]
  call void @_ZStplIcSt11char_traitsIcESaIcEESbIT_T0_T1_ERKS6_S8_(%"class.std::basic_string"* sret %2, %"class.std::basic_string"* %5, %"class.std::basic_string"* %6), !dbg !4882 ; [debug line = 101:11]
  %7 = call %"class.std::basic_string"* @_ZNSsaSERKSs(%"class.std::basic_string"* %4, %"class.std::basic_string"* %2), !dbg !4882 ; [#uses=0 type=%"class.std::basic_string"*] [debug line = 101:11]
  call void @_ZNSsD1Ev(%"class.std::basic_string"* %2), !dbg !4882 ; [debug line = 101:11]
  %8 = getelementptr inbounds %class.csv* %3, i32 0, i32 1, !dbg !4883 ; [#uses=1 type=%"class.std::basic_string"*] [debug line = 102:17]
  %9 = call i8* @_ZNKSs5c_strEv(%"class.std::basic_string"* %8), !dbg !4883 ; [#uses=1 type=i8*] [debug line = 102:17]
  %10 = call zeroext i17 @_ZStorSt13_Ios_OpenmodeS_(i17 zeroext 16, i17 zeroext 32), !dbg !4883 ; [#uses=1 type=i17] [debug line = 102:17]
  call void @_ZNSt14basic_ofstreamIcSt11char_traitsIcEE4openEPKcSt13_Ios_Openmode(%"class.std::basic_ofstream"* %filewrite, i8* %9, i17 zeroext %10), !dbg !4883 ; [debug line = 102:17]
  call void @llvm.dbg.declare(metadata !{i64* %i}, metadata !4884), !dbg !4886 ; [debug line = 104:14] [debug variable = i]
  store i64 0, i64* %i, align 8, !dbg !4887       ; [debug line = 104:19]
  br label %11, !dbg !4887                        ; [debug line = 104:19]

; <label>:11                                      ; preds = %54, %0
  %12 = load i64* %i, align 8, !dbg !4887         ; [#uses=1 type=i64] [debug line = 104:19]
  %13 = getelementptr inbounds %class.csv* %3, i32 0, i32 3, !dbg !4888 ; [#uses=1 type=%"class.std::vector"*] [debug line = 104:23]
  %14 = call i64 @_ZNKSt6vectorIS_ISsSaISsEESaIS1_EE4sizeEv(%"class.std::vector"* %13), !dbg !4888 ; [#uses=1 type=i64] [debug line = 104:23]
  %15 = icmp ult i64 %12, %14, !dbg !4888         ; [#uses=1 type=i1] [debug line = 104:23]
  br i1 %15, label %16, label %57, !dbg !4888     ; [debug line = 104:23]

; <label>:16                                      ; preds = %11
  call void @llvm.dbg.declare(metadata !{i64* %j}, metadata !4889), !dbg !4892 ; [debug line = 106:15] [debug variable = j]
  store i64 0, i64* %j, align 8, !dbg !4893       ; [debug line = 106:20]
  br label %17, !dbg !4893                        ; [debug line = 106:20]

; <label>:17                                      ; preds = %48, %16
  %18 = load i64* %j, align 8, !dbg !4893         ; [#uses=1 type=i64] [debug line = 106:20]
  %19 = getelementptr inbounds %class.csv* %3, i32 0, i32 3, !dbg !4894 ; [#uses=1 type=%"class.std::vector"*] [debug line = 106:24]
  %20 = load i64* %i, align 8, !dbg !4894         ; [#uses=1 type=i64] [debug line = 106:24]
  %21 = call %"class.std::vector.3"* @_ZNSt6vectorIS_ISsSaISsEESaIS1_EEixEm(%"class.std::vector"* %19, i64 %20), !dbg !4894 ; [#uses=1 type=%"class.std::vector.3"*] [debug line = 106:24]
  %22 = call i64 @_ZNKSt6vectorISsSaISsEE4sizeEv(%"class.std::vector.3"* %21), !dbg !4894 ; [#uses=1 type=i64] [debug line = 106:24]
  %23 = icmp ult i64 %18, %22, !dbg !4894         ; [#uses=1 type=i1] [debug line = 106:24]
  br i1 %23, label %24, label %51, !dbg !4894     ; [debug line = 106:24]

; <label>:24                                      ; preds = %17
  %25 = load i64* %j, align 8, !dbg !4895         ; [#uses=1 type=i64] [debug line = 108:4]
  %26 = getelementptr inbounds %class.csv* %3, i32 0, i32 3, !dbg !4897 ; [#uses=1 type=%"class.std::vector"*] [debug line = 108:11]
  %27 = call i64 @_ZNKSt6vectorIS_ISsSaISsEESaIS1_EE4sizeEv(%"class.std::vector"* %26), !dbg !4897 ; [#uses=1 type=i64] [debug line = 108:11]
  %28 = sub i64 %27, 1, !dbg !4897                ; [#uses=1 type=i64] [debug line = 108:11]
  %29 = icmp eq i64 %25, %28, !dbg !4897          ; [#uses=1 type=i1] [debug line = 108:11]
  br i1 %29, label %30, label %38, !dbg !4897     ; [debug line = 108:11]

; <label>:30                                      ; preds = %24
  %31 = bitcast %"class.std::basic_ofstream"* %filewrite to %"class.std::basic_ostream"*, !dbg !4898 ; [#uses=1 type=%"class.std::basic_ostream"*] [debug line = 109:5]
  %32 = getelementptr inbounds %class.csv* %3, i32 0, i32 3, !dbg !4899 ; [#uses=1 type=%"class.std::vector"*] [debug line = 109:18]
  %33 = load i64* %i, align 8, !dbg !4899         ; [#uses=1 type=i64] [debug line = 109:18]
  %34 = call %"class.std::vector.3"* @_ZNSt6vectorIS_ISsSaISsEESaIS1_EEixEm(%"class.std::vector"* %32, i64 %33), !dbg !4899 ; [#uses=1 type=%"class.std::vector.3"*] [debug line = 109:18]
  %35 = load i64* %j, align 8, !dbg !4899         ; [#uses=1 type=i64] [debug line = 109:18]
  %36 = call %"class.std::basic_string"* @_ZNSt6vectorISsSaISsEEixEm(%"class.std::vector.3"* %34, i64 %35), !dbg !4899 ; [#uses=1 type=%"class.std::basic_string"*] [debug line = 109:18]
  %37 = call %"class.std::basic_ostream"* @_ZStlsIcSt11char_traitsIcESaIcEERSt13basic_ostreamIT_T0_ES7_RKSbIS4_S5_T1_E(%"class.std::basic_ostream"* %31, %"class.std::basic_string"* %36), !dbg !4899 ; [#uses=0 type=%"class.std::basic_ostream"*] [debug line = 109:18]
  br label %47, !dbg !4899                        ; [debug line = 109:18]

; <label>:38                                      ; preds = %24
  %39 = bitcast %"class.std::basic_ofstream"* %filewrite to %"class.std::basic_ostream"*, !dbg !4900 ; [#uses=1 type=%"class.std::basic_ostream"*] [debug line = 111:5]
  %40 = getelementptr inbounds %class.csv* %3, i32 0, i32 3, !dbg !4901 ; [#uses=1 type=%"class.std::vector"*] [debug line = 111:18]
  %41 = load i64* %i, align 8, !dbg !4901         ; [#uses=1 type=i64] [debug line = 111:18]
  %42 = call %"class.std::vector.3"* @_ZNSt6vectorIS_ISsSaISsEESaIS1_EEixEm(%"class.std::vector"* %40, i64 %41), !dbg !4901 ; [#uses=1 type=%"class.std::vector.3"*] [debug line = 111:18]
  %43 = load i64* %j, align 8, !dbg !4901         ; [#uses=1 type=i64] [debug line = 111:18]
  %44 = call %"class.std::basic_string"* @_ZNSt6vectorISsSaISsEEixEm(%"class.std::vector.3"* %42, i64 %43), !dbg !4901 ; [#uses=1 type=%"class.std::basic_string"*] [debug line = 111:18]
  %45 = call %"class.std::basic_ostream"* @_ZStlsIcSt11char_traitsIcESaIcEERSt13basic_ostreamIT_T0_ES7_RKSbIS4_S5_T1_E(%"class.std::basic_ostream"* %39, %"class.std::basic_string"* %44), !dbg !4901 ; [#uses=1 type=%"class.std::basic_ostream"*] [debug line = 111:18]
  %46 = call %"class.std::basic_ostream"* @_ZStlsISt11char_traitsIcEERSt13basic_ostreamIcT_ES5_PKc(%"class.std::basic_ostream"* %45, i8* getelementptr inbounds ([2 x i8]* @.str, i32 0, i32 0)), !dbg !4901 ; [#uses=0 type=%"class.std::basic_ostream"*] [debug line = 111:18]
  br label %47

; <label>:47                                      ; preds = %38, %30
  br label %48, !dbg !4902                        ; [debug line = 113:3]

; <label>:48                                      ; preds = %47
  %49 = load i64* %j, align 8, !dbg !4903         ; [#uses=1 type=i64] [debug line = 106:41]
  %50 = add i64 %49, 1, !dbg !4903                ; [#uses=1 type=i64] [debug line = 106:41]
  store i64 %50, i64* %j, align 8, !dbg !4903     ; [debug line = 106:41]
  br label %17, !dbg !4903                        ; [debug line = 106:41]

; <label>:51                                      ; preds = %17
  %52 = bitcast %"class.std::basic_ofstream"* %filewrite to %"class.std::basic_ostream"*, !dbg !4904 ; [#uses=1 type=%"class.std::basic_ostream"*] [debug line = 114:3]
  %53 = call %"class.std::basic_ostream"* @_ZStlsISt11char_traitsIcEERSt13basic_ostreamIcT_ES5_PKc(%"class.std::basic_ostream"* %52, i8* getelementptr inbounds ([2 x i8]* @.str1, i32 0, i32 0)), !dbg !4904 ; [#uses=0 type=%"class.std::basic_ostream"*] [debug line = 114:3]
  br label %54, !dbg !4905                        ; [debug line = 115:2]

; <label>:54                                      ; preds = %51
  %55 = load i64* %i, align 8, !dbg !4906         ; [#uses=1 type=i64] [debug line = 104:37]
  %56 = add i64 %55, 1, !dbg !4906                ; [#uses=1 type=i64] [debug line = 104:37]
  store i64 %56, i64* %i, align 8, !dbg !4906     ; [debug line = 104:37]
  br label %11, !dbg !4906                        ; [debug line = 104:37]

; <label>:57                                      ; preds = %11
  call void @_ZNSt14basic_ofstreamIcSt11char_traitsIcEED1Ev(%"class.std::basic_ofstream"* %filewrite), !dbg !4907 ; [debug line = 116:1]
  ret void, !dbg !4907                            ; [debug line = 116:1]
}

; [#uses=0]
define void @_ZN3csv6setDirESs(%class.csv* %this, %"class.std::basic_string"* %directory) nounwind uwtable align 2 {
  %1 = alloca %class.csv*, align 8                ; [#uses=2 type=%class.csv**]
  store %class.csv* %this, %class.csv** %1, align 8
  call void @llvm.dbg.declare(metadata !{%class.csv** %1}, metadata !4908), !dbg !4909 ; [debug line = 118:11] [debug variable = this]
  call void @llvm.dbg.declare(metadata !{%"class.std::basic_string"* %directory}, metadata !4910), !dbg !4911 ; [debug line = 118:25] [debug variable = directory]
  %2 = load %class.csv** %1                       ; [#uses=1 type=%class.csv*]
  %3 = getelementptr inbounds %class.csv* %2, i32 0, i32 0, !dbg !4912 ; [#uses=1 type=%"class.std::basic_string"*] [debug line = 119:2]
  %4 = call %"class.std::basic_string"* @_ZNSsaSERKSs(%"class.std::basic_string"* %3, %"class.std::basic_string"* %directory), !dbg !4912 ; [#uses=0 type=%"class.std::basic_string"*] [debug line = 119:2]
  ret void, !dbg !4914                            ; [debug line = 120:1]
}

; [#uses=3]
define linkonce_odr void @_ZN9__gnu_cxx13new_allocatorISt6vectorISsSaISsEEE9constructEPS3_RKS3_(%"class.std::ios_base::Init"* %this, %"class.std::vector.3"* %__p, %"class.std::vector.3"* %__val) nounwind uwtable align 2 {
  %1 = alloca %"class.std::ios_base::Init"*, align 8 ; [#uses=2 type=%"class.std::ios_base::Init"**]
  %2 = alloca %"class.std::vector.3"*, align 8    ; [#uses=2 type=%"class.std::vector.3"**]
  %3 = alloca %"class.std::vector.3"*, align 8    ; [#uses=2 type=%"class.std::vector.3"**]
  store %"class.std::ios_base::Init"* %this, %"class.std::ios_base::Init"** %1, align 8
  call void @llvm.dbg.declare(metadata !{%"class.std::ios_base::Init"** %1}, metadata !4915), !dbg !4917 ; [debug line = 107:7] [debug variable = this]
  store %"class.std::vector.3"* %__p, %"class.std::vector.3"** %2, align 8
  call void @llvm.dbg.declare(metadata !{%"class.std::vector.3"** %2}, metadata !4918), !dbg !4919 ; [debug line = 107:25] [debug variable = __p]
  store %"class.std::vector.3"* %__val, %"class.std::vector.3"** %3, align 8
  call void @llvm.dbg.declare(metadata !{%"class.std::vector.3"** %3}, metadata !4920), !dbg !4921 ; [debug line = 107:41] [debug variable = __val]
  %4 = load %"class.std::ios_base::Init"** %1     ; [#uses=0 type=%"class.std::ios_base::Init"*]
  %5 = load %"class.std::vector.3"** %2, align 8, !dbg !4922 ; [#uses=1 type=%"class.std::vector.3"*] [debug line = 108:9]
  %6 = bitcast %"class.std::vector.3"* %5 to i8*, !dbg !4922 ; [#uses=2 type=i8*] [debug line = 108:9]
  %7 = icmp eq i8* %6, null, !dbg !4922           ; [#uses=1 type=i1] [debug line = 108:9]
  br i1 %7, label %11, label %8, !dbg !4922       ; [debug line = 108:9]

; <label>:8                                       ; preds = %0
  %9 = bitcast i8* %6 to %"class.std::vector.3"*, !dbg !4922 ; [#uses=2 type=%"class.std::vector.3"*] [debug line = 108:9]
  %10 = load %"class.std::vector.3"** %3, align 8, !dbg !4922 ; [#uses=1 type=%"class.std::vector.3"*] [debug line = 108:9]
  call void @_ZNSt6vectorISsSaISsEEC1ERKS1_(%"class.std::vector.3"* %9, %"class.std::vector.3"* %10), !dbg !4922 ; [debug line = 108:9]
  br label %11, !dbg !4922                        ; [debug line = 108:9]

; <label>:11                                      ; preds = %8, %0
  %12 = phi %"class.std::vector.3"* [ %9, %8 ], [ null, %0 ], !dbg !4922 ; [#uses=0 type=%"class.std::vector.3"*] [debug line = 108:9]
  ret void, !dbg !4924                            ; [debug line = 108:40]
}

; [#uses=1]
define linkonce_odr void @_ZNSt6vectorIS_ISsSaISsEESaIS1_EE13_M_insert_auxEN9__gnu_cxx17__normal_iteratorIPS1_S3_EERKS1_(%"class.std::vector"* %this, %"class.__gnu_cxx::__normal_iterator"* byval align 8 %__position, %"class.std::vector.3"* %__x) nounwind uwtable align 2 {
  %1 = alloca %"class.std::vector"*, align 8      ; [#uses=2 type=%"class.std::vector"**]
  %2 = alloca %"class.std::vector.3"*, align 8    ; [#uses=3 type=%"class.std::vector.3"**]
  %__x_copy = alloca %"class.std::vector.3", align 8 ; [#uses=3 type=%"class.std::vector.3"*]
  %__len = alloca i64, align 8                    ; [#uses=3 type=i64*]
  %__elems_before = alloca i64, align 8           ; [#uses=2 type=i64*]
  %3 = alloca %"class.__gnu_cxx::__normal_iterator", align 8 ; [#uses=2 type=%"class.__gnu_cxx::__normal_iterator"*]
  %__new_start = alloca %"class.std::vector.3"*, align 8 ; [#uses=6 type=%"class.std::vector.3"**]
  %__new_finish = alloca %"class.std::vector.3"*, align 8 ; [#uses=8 type=%"class.std::vector.3"**]
  store %"class.std::vector"* %this, %"class.std::vector"** %1, align 8
  call void @llvm.dbg.declare(metadata !{%"class.std::vector"** %1}, metadata !4925), !dbg !4926 ; [debug line = 1230:7] [debug variable = this]
  call void @llvm.dbg.declare(metadata !{%"class.__gnu_cxx::__normal_iterator"* %__position}, metadata !4927), !dbg !4928 ; [debug line = 1230:30] [debug variable = __position]
  store %"class.std::vector.3"* %__x, %"class.std::vector.3"** %2, align 8
  call void @llvm.dbg.declare(metadata !{%"class.std::vector.3"** %2}, metadata !4929), !dbg !4930 ; [debug line = 1230:60] [debug variable = __x]
  %4 = load %"class.std::vector"** %1             ; [#uses=26 type=%"class.std::vector"*]
  %5 = bitcast %"class.std::vector"* %4 to %"struct.std::_Vector_base"*, !dbg !4931 ; [#uses=1 type=%"struct.std::_Vector_base"*] [debug line = 304:7]
  %6 = getelementptr inbounds %"struct.std::_Vector_base"* %5, i32 0, i32 0, !dbg !4931 ; [#uses=1 type=%"struct.std::_Vector_base<std::vector<std::basic_string<char>, std::allocator<std::basic_string<char> > >, std::allocator<std::vector<std::basic_string<char>, std::allocator<std::basic_string<char> > > > >::_Vector_impl"*] [debug line = 304:7]
  %7 = getelementptr inbounds %"struct.std::_Vector_base<std::vector<std::basic_string<char>, std::allocator<std::basic_string<char> > >, std::allocator<std::vector<std::basic_string<char>, std::allocator<std::basic_string<char> > > > >::_Vector_impl"* %6, i32 0, i32 1, !dbg !4931 ; [#uses=1 type=%"class.std::vector.3"**] [debug line = 304:7]
  %8 = load %"class.std::vector.3"** %7, align 8, !dbg !4931 ; [#uses=1 type=%"class.std::vector.3"*] [debug line = 304:7]
  %9 = bitcast %"class.std::vector"* %4 to %"struct.std::_Vector_base"*, !dbg !4931 ; [#uses=1 type=%"struct.std::_Vector_base"*] [debug line = 304:7]
  %10 = getelementptr inbounds %"struct.std::_Vector_base"* %9, i32 0, i32 0, !dbg !4931 ; [#uses=1 type=%"struct.std::_Vector_base<std::vector<std::basic_string<char>, std::allocator<std::basic_string<char> > >, std::allocator<std::vector<std::basic_string<char>, std::allocator<std::basic_string<char> > > > >::_Vector_impl"*] [debug line = 304:7]
  %11 = getelementptr inbounds %"struct.std::_Vector_base<std::vector<std::basic_string<char>, std::allocator<std::basic_string<char> > >, std::allocator<std::vector<std::basic_string<char>, std::allocator<std::basic_string<char> > > > >::_Vector_impl"* %10, i32 0, i32 2, !dbg !4931 ; [#uses=1 type=%"class.std::vector.3"**] [debug line = 304:7]
  %12 = load %"class.std::vector.3"** %11, align 8, !dbg !4931 ; [#uses=1 type=%"class.std::vector.3"*] [debug line = 304:7]
  %13 = icmp ne %"class.std::vector.3"* %8, %12, !dbg !4931 ; [#uses=1 type=i1] [debug line = 304:7]
  br i1 %13, label %14, label %48, !dbg !4931     ; [debug line = 304:7]

; <label>:14                                      ; preds = %0
  %15 = bitcast %"class.std::vector"* %4 to %"struct.std::_Vector_base"*, !dbg !4934 ; [#uses=1 type=%"struct.std::_Vector_base"*] [debug line = 306:4]
  %16 = getelementptr inbounds %"struct.std::_Vector_base"* %15, i32 0, i32 0, !dbg !4934 ; [#uses=1 type=%"struct.std::_Vector_base<std::vector<std::basic_string<char>, std::allocator<std::basic_string<char> > >, std::allocator<std::vector<std::basic_string<char>, std::allocator<std::basic_string<char> > > > >::_Vector_impl"*] [debug line = 306:4]
  %17 = bitcast %"struct.std::_Vector_base<std::vector<std::basic_string<char>, std::allocator<std::basic_string<char> > >, std::allocator<std::vector<std::basic_string<char>, std::allocator<std::basic_string<char> > > > >::_Vector_impl"* %16 to %"class.std::ios_base::Init"*, !dbg !4934 ; [#uses=1 type=%"class.std::ios_base::Init"*] [debug line = 306:4]
  %18 = bitcast %"class.std::vector"* %4 to %"struct.std::_Vector_base"*, !dbg !4934 ; [#uses=1 type=%"struct.std::_Vector_base"*] [debug line = 306:4]
  %19 = getelementptr inbounds %"struct.std::_Vector_base"* %18, i32 0, i32 0, !dbg !4934 ; [#uses=1 type=%"struct.std::_Vector_base<std::vector<std::basic_string<char>, std::allocator<std::basic_string<char> > >, std::allocator<std::vector<std::basic_string<char>, std::allocator<std::basic_string<char> > > > >::_Vector_impl"*] [debug line = 306:4]
  %20 = getelementptr inbounds %"struct.std::_Vector_base<std::vector<std::basic_string<char>, std::allocator<std::basic_string<char> > >, std::allocator<std::vector<std::basic_string<char>, std::allocator<std::basic_string<char> > > > >::_Vector_impl"* %19, i32 0, i32 1, !dbg !4934 ; [#uses=1 type=%"class.std::vector.3"**] [debug line = 306:4]
  %21 = load %"class.std::vector.3"** %20, align 8, !dbg !4934 ; [#uses=1 type=%"class.std::vector.3"*] [debug line = 306:4]
  %22 = bitcast %"class.std::vector"* %4 to %"struct.std::_Vector_base"*, !dbg !4934 ; [#uses=1 type=%"struct.std::_Vector_base"*] [debug line = 306:4]
  %23 = getelementptr inbounds %"struct.std::_Vector_base"* %22, i32 0, i32 0, !dbg !4934 ; [#uses=1 type=%"struct.std::_Vector_base<std::vector<std::basic_string<char>, std::allocator<std::basic_string<char> > >, std::allocator<std::vector<std::basic_string<char>, std::allocator<std::basic_string<char> > > > >::_Vector_impl"*] [debug line = 306:4]
  %24 = getelementptr inbounds %"struct.std::_Vector_base<std::vector<std::basic_string<char>, std::allocator<std::basic_string<char> > >, std::allocator<std::vector<std::basic_string<char>, std::allocator<std::basic_string<char> > > > >::_Vector_impl"* %23, i32 0, i32 1, !dbg !4934 ; [#uses=1 type=%"class.std::vector.3"**] [debug line = 306:4]
  %25 = load %"class.std::vector.3"** %24, align 8, !dbg !4934 ; [#uses=1 type=%"class.std::vector.3"*] [debug line = 306:4]
  %26 = getelementptr inbounds %"class.std::vector.3"* %25, i64 -1, !dbg !4934 ; [#uses=1 type=%"class.std::vector.3"*] [debug line = 306:4]
  call void @_ZN9__gnu_cxx13new_allocatorISt6vectorISsSaISsEEE9constructEPS3_RKS3_(%"class.std::ios_base::Init"* %17, %"class.std::vector.3"* %21, %"class.std::vector.3"* %26), !dbg !4934 ; [debug line = 306:4]
  %27 = bitcast %"class.std::vector"* %4 to %"struct.std::_Vector_base"*, !dbg !4936 ; [#uses=1 type=%"struct.std::_Vector_base"*] [debug line = 309:4]
  %28 = getelementptr inbounds %"struct.std::_Vector_base"* %27, i32 0, i32 0, !dbg !4936 ; [#uses=1 type=%"struct.std::_Vector_base<std::vector<std::basic_string<char>, std::allocator<std::basic_string<char> > >, std::allocator<std::vector<std::basic_string<char>, std::allocator<std::basic_string<char> > > > >::_Vector_impl"*] [debug line = 309:4]
  %29 = getelementptr inbounds %"struct.std::_Vector_base<std::vector<std::basic_string<char>, std::allocator<std::basic_string<char> > >, std::allocator<std::vector<std::basic_string<char>, std::allocator<std::basic_string<char> > > > >::_Vector_impl"* %28, i32 0, i32 1, !dbg !4936 ; [#uses=2 type=%"class.std::vector.3"**] [debug line = 309:4]
  %30 = load %"class.std::vector.3"** %29, align 8, !dbg !4936 ; [#uses=1 type=%"class.std::vector.3"*] [debug line = 309:4]
  %31 = getelementptr inbounds %"class.std::vector.3"* %30, i32 1, !dbg !4936 ; [#uses=1 type=%"class.std::vector.3"*] [debug line = 309:4]
  store %"class.std::vector.3"* %31, %"class.std::vector.3"** %29, align 8, !dbg !4936 ; [debug line = 309:4]
  call void @llvm.dbg.declare(metadata !{%"class.std::vector.3"* %__x_copy}, metadata !4937), !dbg !4938 ; [debug line = 311:8] [debug variable = __x_copy]
  %32 = load %"class.std::vector.3"** %2, align 8, !dbg !4939 ; [#uses=1 type=%"class.std::vector.3"*] [debug line = 311:22]
  call void @_ZNSt6vectorISsSaISsEEC1ERKS1_(%"class.std::vector.3"* %__x_copy, %"class.std::vector.3"* %32), !dbg !4939 ; [debug line = 311:22]
  %33 = call %"class.std::vector.3"** @_ZNK9__gnu_cxx17__normal_iteratorIPSt6vectorISsSaISsEES1_IS3_SaIS3_EEE4baseEv(%"class.__gnu_cxx::__normal_iterator"* %__position), !dbg !4940 ; [#uses=1 type=%"class.std::vector.3"**] [debug line = 313:23]
  %34 = load %"class.std::vector.3"** %33, !dbg !4940 ; [#uses=1 type=%"class.std::vector.3"*] [debug line = 313:23]
  %35 = bitcast %"class.std::vector"* %4 to %"struct.std::_Vector_base"*, !dbg !4940 ; [#uses=1 type=%"struct.std::_Vector_base"*] [debug line = 313:23]
  %36 = getelementptr inbounds %"struct.std::_Vector_base"* %35, i32 0, i32 0, !dbg !4940 ; [#uses=1 type=%"struct.std::_Vector_base<std::vector<std::basic_string<char>, std::allocator<std::basic_string<char> > >, std::allocator<std::vector<std::basic_string<char>, std::allocator<std::basic_string<char> > > > >::_Vector_impl"*] [debug line = 313:23]
  %37 = getelementptr inbounds %"struct.std::_Vector_base<std::vector<std::basic_string<char>, std::allocator<std::basic_string<char> > >, std::allocator<std::vector<std::basic_string<char>, std::allocator<std::basic_string<char> > > > >::_Vector_impl"* %36, i32 0, i32 1, !dbg !4940 ; [#uses=1 type=%"class.std::vector.3"**] [debug line = 313:23]
  %38 = load %"class.std::vector.3"** %37, align 8, !dbg !4940 ; [#uses=1 type=%"class.std::vector.3"*] [debug line = 313:23]
  %39 = getelementptr inbounds %"class.std::vector.3"* %38, i64 -2, !dbg !4940 ; [#uses=1 type=%"class.std::vector.3"*] [debug line = 313:23]
  %40 = bitcast %"class.std::vector"* %4 to %"struct.std::_Vector_base"*, !dbg !4940 ; [#uses=1 type=%"struct.std::_Vector_base"*] [debug line = 313:23]
  %41 = getelementptr inbounds %"struct.std::_Vector_base"* %40, i32 0, i32 0, !dbg !4940 ; [#uses=1 type=%"struct.std::_Vector_base<std::vector<std::basic_string<char>, std::allocator<std::basic_string<char> > >, std::allocator<std::vector<std::basic_string<char>, std::allocator<std::basic_string<char> > > > >::_Vector_impl"*] [debug line = 313:23]
  %42 = getelementptr inbounds %"struct.std::_Vector_base<std::vector<std::basic_string<char>, std::allocator<std::basic_string<char> > >, std::allocator<std::vector<std::basic_string<char>, std::allocator<std::basic_string<char> > > > >::_Vector_impl"* %41, i32 0, i32 1, !dbg !4940 ; [#uses=1 type=%"class.std::vector.3"**] [debug line = 313:23]
  %43 = load %"class.std::vector.3"** %42, align 8, !dbg !4940 ; [#uses=1 type=%"class.std::vector.3"*] [debug line = 313:23]
  %44 = getelementptr inbounds %"class.std::vector.3"* %43, i64 -1, !dbg !4940 ; [#uses=1 type=%"class.std::vector.3"*] [debug line = 313:23]
  %45 = call %"class.std::vector.3"* @_ZSt13copy_backwardIPSt6vectorISsSaISsEES3_ET0_T_S5_S4_(%"class.std::vector.3"* %34, %"class.std::vector.3"* %39, %"class.std::vector.3"* %44), !dbg !4940 ; [#uses=0 type=%"class.std::vector.3"*] [debug line = 313:23]
  %46 = call %"class.std::vector.3"* @_ZNK9__gnu_cxx17__normal_iteratorIPSt6vectorISsSaISsEES1_IS3_SaIS3_EEEdeEv(%"class.__gnu_cxx::__normal_iterator"* %__position), !dbg !4941 ; [#uses=1 type=%"class.std::vector.3"*] [debug line = 317:4]
  %47 = call %"class.std::vector.3"* @_ZNSt6vectorISsSaISsEEaSERKS1_(%"class.std::vector.3"* %46, %"class.std::vector.3"* %__x_copy), !dbg !4941 ; [#uses=0 type=%"class.std::vector.3"*] [debug line = 317:4]
  call void @_ZNSt6vectorISsSaISsEED1Ev(%"class.std::vector.3"* %__x_copy), !dbg !4942 ; [debug line = 321:2]
  br label %125, !dbg !4942                       ; [debug line = 321:2]

; <label>:48                                      ; preds = %0
  call void @llvm.dbg.declare(metadata !{i64* %__len}, metadata !4943), !dbg !4946 ; [debug line = 324:20] [debug variable = __len]
  %49 = call i64 @_ZNKSt6vectorIS_ISsSaISsEESaIS1_EE12_M_check_lenEmPKc(%"class.std::vector"* %4, i64 1, i8* getelementptr inbounds ([22 x i8]* @.str2, i32 0, i32 0)), !dbg !4947 ; [#uses=1 type=i64] [debug line = 325:6]
  store i64 %49, i64* %__len, align 8, !dbg !4947 ; [debug line = 325:6]
  call void @llvm.dbg.declare(metadata !{i64* %__elems_before}, metadata !4948), !dbg !4949 ; [debug line = 326:20] [debug variable = __elems_before]
  call void @_ZNSt6vectorIS_ISsSaISsEESaIS1_EE5beginEv(%"class.__gnu_cxx::__normal_iterator"* sret %3, %"class.std::vector"* %4), !dbg !4950 ; [debug line = 326:50]
  %50 = call i64 @_ZN9__gnu_cxxmiIPSt6vectorISsSaISsEES1_IS3_SaIS3_EEEENS_17__normal_iteratorIT_T0_E15difference_typeERKSA_SD_(%"class.__gnu_cxx::__normal_iterator"* %__position, %"class.__gnu_cxx::__normal_iterator"* %3), !dbg !4950 ; [#uses=1 type=i64] [debug line = 326:50]
  store i64 %50, i64* %__elems_before, align 8, !dbg !4950 ; [debug line = 326:50]
  call void @llvm.dbg.declare(metadata !{%"class.std::vector.3"** %__new_start}, metadata !4951), !dbg !4952 ; [debug line = 327:12] [debug variable = __new_start]
  %51 = bitcast %"class.std::vector"* %4 to %"struct.std::_Vector_base"*, !dbg !4953 ; [#uses=1 type=%"struct.std::_Vector_base"*] [debug line = 327:24]
  %52 = load i64* %__len, align 8, !dbg !4953     ; [#uses=1 type=i64] [debug line = 327:24]
  %53 = call %"class.std::vector.3"* @_ZNSt12_Vector_baseISt6vectorISsSaISsEESaIS2_EE11_M_allocateEm(%"struct.std::_Vector_base"* %51, i64 %52), !dbg !4953 ; [#uses=1 type=%"class.std::vector.3"*] [debug line = 327:24]
  store %"class.std::vector.3"* %53, %"class.std::vector.3"** %__new_start, align 8, !dbg !4953 ; [debug line = 327:24]
  call void @llvm.dbg.declare(metadata !{%"class.std::vector.3"** %__new_finish}, metadata !4954), !dbg !4955 ; [debug line = 328:12] [debug variable = __new_finish]
  %54 = load %"class.std::vector.3"** %__new_start, align 8, !dbg !4956 ; [#uses=1 type=%"class.std::vector.3"*] [debug line = 328:37]
  store %"class.std::vector.3"* %54, %"class.std::vector.3"** %__new_finish, align 8, !dbg !4956 ; [debug line = 328:37]
  %55 = bitcast %"class.std::vector"* %4 to %"struct.std::_Vector_base"*, !dbg !4957 ; [#uses=1 type=%"struct.std::_Vector_base"*] [debug line = 335:8]
  %56 = getelementptr inbounds %"struct.std::_Vector_base"* %55, i32 0, i32 0, !dbg !4957 ; [#uses=1 type=%"struct.std::_Vector_base<std::vector<std::basic_string<char>, std::allocator<std::basic_string<char> > >, std::allocator<std::vector<std::basic_string<char>, std::allocator<std::basic_string<char> > > > >::_Vector_impl"*] [debug line = 335:8]
  %57 = bitcast %"struct.std::_Vector_base<std::vector<std::basic_string<char>, std::allocator<std::basic_string<char> > >, std::allocator<std::vector<std::basic_string<char>, std::allocator<std::basic_string<char> > > > >::_Vector_impl"* %56 to %"class.std::ios_base::Init"*, !dbg !4957 ; [#uses=1 type=%"class.std::ios_base::Init"*] [debug line = 335:8]
  %58 = load %"class.std::vector.3"** %__new_start, align 8, !dbg !4957 ; [#uses=1 type=%"class.std::vector.3"*] [debug line = 335:8]
  %59 = load i64* %__elems_before, align 8, !dbg !4957 ; [#uses=1 type=i64] [debug line = 335:8]
  %60 = getelementptr inbounds %"class.std::vector.3"* %58, i64 %59, !dbg !4957 ; [#uses=1 type=%"class.std::vector.3"*] [debug line = 335:8]
  %61 = load %"class.std::vector.3"** %2, align 8, !dbg !4957 ; [#uses=1 type=%"class.std::vector.3"*] [debug line = 335:8]
  call void @_ZN9__gnu_cxx13new_allocatorISt6vectorISsSaISsEEE9constructEPS3_RKS3_(%"class.std::ios_base::Init"* %57, %"class.std::vector.3"* %60, %"class.std::vector.3"* %61), !dbg !4957 ; [debug line = 335:8]
  store %"class.std::vector.3"* null, %"class.std::vector.3"** %__new_finish, align 8, !dbg !4959 ; [debug line = 341:8]
  %62 = bitcast %"class.std::vector"* %4 to %"struct.std::_Vector_base"*, !dbg !4960 ; [#uses=1 type=%"struct.std::_Vector_base"*] [debug line = 344:3]
  %63 = getelementptr inbounds %"struct.std::_Vector_base"* %62, i32 0, i32 0, !dbg !4960 ; [#uses=1 type=%"struct.std::_Vector_base<std::vector<std::basic_string<char>, std::allocator<std::basic_string<char> > >, std::allocator<std::vector<std::basic_string<char>, std::allocator<std::basic_string<char> > > > >::_Vector_impl"*] [debug line = 344:3]
  %64 = getelementptr inbounds %"struct.std::_Vector_base<std::vector<std::basic_string<char>, std::allocator<std::basic_string<char> > >, std::allocator<std::vector<std::basic_string<char>, std::allocator<std::basic_string<char> > > > >::_Vector_impl"* %63, i32 0, i32 0, !dbg !4960 ; [#uses=1 type=%"class.std::vector.3"**] [debug line = 344:3]
  %65 = load %"class.std::vector.3"** %64, align 8, !dbg !4960 ; [#uses=1 type=%"class.std::vector.3"*] [debug line = 344:3]
  %66 = call %"class.std::vector.3"** @_ZNK9__gnu_cxx17__normal_iteratorIPSt6vectorISsSaISsEES1_IS3_SaIS3_EEE4baseEv(%"class.__gnu_cxx::__normal_iterator"* %__position), !dbg !4961 ; [#uses=1 type=%"class.std::vector.3"**] [debug line = 345:10]
  %67 = load %"class.std::vector.3"** %66, !dbg !4961 ; [#uses=1 type=%"class.std::vector.3"*] [debug line = 345:10]
  %68 = load %"class.std::vector.3"** %__new_start, align 8, !dbg !4961 ; [#uses=1 type=%"class.std::vector.3"*] [debug line = 345:10]
  %69 = bitcast %"class.std::vector"* %4 to %"struct.std::_Vector_base"*, !dbg !4962 ; [#uses=1 type=%"struct.std::_Vector_base"*] [debug line = 346:10]
  %70 = call %"class.std::ios_base::Init"* @_ZNSt12_Vector_baseISt6vectorISsSaISsEESaIS2_EE19_M_get_Tp_allocatorEv(%"struct.std::_Vector_base"* %69), !dbg !4962 ; [#uses=1 type=%"class.std::ios_base::Init"*] [debug line = 346:10]
  %71 = call %"class.std::vector.3"* @_ZSt22__uninitialized_move_aIPSt6vectorISsSaISsEES3_SaIS2_EET0_T_S6_S5_RT1_(%"class.std::vector.3"* %65, %"class.std::vector.3"* %67, %"class.std::vector.3"* %68, %"class.std::ios_base::Init"* %70), !dbg !4962 ; [#uses=1 type=%"class.std::vector.3"*] [debug line = 346:10]
  store %"class.std::vector.3"* %71, %"class.std::vector.3"** %__new_finish, align 8, !dbg !4962 ; [debug line = 346:10]
  %72 = load %"class.std::vector.3"** %__new_finish, align 8, !dbg !4963 ; [#uses=1 type=%"class.std::vector.3"*] [debug line = 347:8]
  %73 = getelementptr inbounds %"class.std::vector.3"* %72, i32 1, !dbg !4963 ; [#uses=1 type=%"class.std::vector.3"*] [debug line = 347:8]
  store %"class.std::vector.3"* %73, %"class.std::vector.3"** %__new_finish, align 8, !dbg !4963 ; [debug line = 347:8]
  %74 = call %"class.std::vector.3"** @_ZNK9__gnu_cxx17__normal_iteratorIPSt6vectorISsSaISsEES1_IS3_SaIS3_EEE4baseEv(%"class.__gnu_cxx::__normal_iterator"* %__position), !dbg !4964 ; [#uses=1 type=%"class.std::vector.3"**] [debug line = 350:31]
  %75 = load %"class.std::vector.3"** %74, !dbg !4964 ; [#uses=1 type=%"class.std::vector.3"*] [debug line = 350:31]
  %76 = bitcast %"class.std::vector"* %4 to %"struct.std::_Vector_base"*, !dbg !4964 ; [#uses=1 type=%"struct.std::_Vector_base"*] [debug line = 350:31]
  %77 = getelementptr inbounds %"struct.std::_Vector_base"* %76, i32 0, i32 0, !dbg !4964 ; [#uses=1 type=%"struct.std::_Vector_base<std::vector<std::basic_string<char>, std::allocator<std::basic_string<char> > >, std::allocator<std::vector<std::basic_string<char>, std::allocator<std::basic_string<char> > > > >::_Vector_impl"*] [debug line = 350:31]
  %78 = getelementptr inbounds %"struct.std::_Vector_base<std::vector<std::basic_string<char>, std::allocator<std::basic_string<char> > >, std::allocator<std::vector<std::basic_string<char>, std::allocator<std::basic_string<char> > > > >::_Vector_impl"* %77, i32 0, i32 1, !dbg !4964 ; [#uses=1 type=%"class.std::vector.3"**] [debug line = 350:31]
  %79 = load %"class.std::vector.3"** %78, align 8, !dbg !4964 ; [#uses=1 type=%"class.std::vector.3"*] [debug line = 350:31]
  %80 = load %"class.std::vector.3"** %__new_finish, align 8, !dbg !4964 ; [#uses=1 type=%"class.std::vector.3"*] [debug line = 350:31]
  %81 = bitcast %"class.std::vector"* %4 to %"struct.std::_Vector_base"*, !dbg !4965 ; [#uses=1 type=%"struct.std::_Vector_base"*] [debug line = 353:10]
  %82 = call %"class.std::ios_base::Init"* @_ZNSt12_Vector_baseISt6vectorISsSaISsEESaIS2_EE19_M_get_Tp_allocatorEv(%"struct.std::_Vector_base"* %81), !dbg !4965 ; [#uses=1 type=%"class.std::ios_base::Init"*] [debug line = 353:10]
  %83 = call %"class.std::vector.3"* @_ZSt22__uninitialized_move_aIPSt6vectorISsSaISsEES3_SaIS2_EET0_T_S6_S5_RT1_(%"class.std::vector.3"* %75, %"class.std::vector.3"* %79, %"class.std::vector.3"* %80, %"class.std::ios_base::Init"* %82), !dbg !4965 ; [#uses=1 type=%"class.std::vector.3"*] [debug line = 353:10]
  store %"class.std::vector.3"* %83, %"class.std::vector.3"** %__new_finish, align 8, !dbg !4965 ; [debug line = 353:10]
  %84 = bitcast %"class.std::vector"* %4 to %"struct.std::_Vector_base"*, !dbg !4966 ; [#uses=1 type=%"struct.std::_Vector_base"*] [debug line = 364:4]
  %85 = getelementptr inbounds %"struct.std::_Vector_base"* %84, i32 0, i32 0, !dbg !4966 ; [#uses=1 type=%"struct.std::_Vector_base<std::vector<std::basic_string<char>, std::allocator<std::basic_string<char> > >, std::allocator<std::vector<std::basic_string<char>, std::allocator<std::basic_string<char> > > > >::_Vector_impl"*] [debug line = 364:4]
  %86 = getelementptr inbounds %"struct.std::_Vector_base<std::vector<std::basic_string<char>, std::allocator<std::basic_string<char> > >, std::allocator<std::vector<std::basic_string<char>, std::allocator<std::basic_string<char> > > > >::_Vector_impl"* %85, i32 0, i32 0, !dbg !4966 ; [#uses=1 type=%"class.std::vector.3"**] [debug line = 364:4]
  %87 = load %"class.std::vector.3"** %86, align 8, !dbg !4966 ; [#uses=1 type=%"class.std::vector.3"*] [debug line = 364:4]
  %88 = bitcast %"class.std::vector"* %4 to %"struct.std::_Vector_base"*, !dbg !4966 ; [#uses=1 type=%"struct.std::_Vector_base"*] [debug line = 364:4]
  %89 = getelementptr inbounds %"struct.std::_Vector_base"* %88, i32 0, i32 0, !dbg !4966 ; [#uses=1 type=%"struct.std::_Vector_base<std::vector<std::basic_string<char>, std::allocator<std::basic_string<char> > >, std::allocator<std::vector<std::basic_string<char>, std::allocator<std::basic_string<char> > > > >::_Vector_impl"*] [debug line = 364:4]
  %90 = getelementptr inbounds %"struct.std::_Vector_base<std::vector<std::basic_string<char>, std::allocator<std::basic_string<char> > >, std::allocator<std::vector<std::basic_string<char>, std::allocator<std::basic_string<char> > > > >::_Vector_impl"* %89, i32 0, i32 1, !dbg !4966 ; [#uses=1 type=%"class.std::vector.3"**] [debug line = 364:4]
  %91 = load %"class.std::vector.3"** %90, align 8, !dbg !4966 ; [#uses=1 type=%"class.std::vector.3"*] [debug line = 364:4]
  %92 = bitcast %"class.std::vector"* %4 to %"struct.std::_Vector_base"*, !dbg !4967 ; [#uses=1 type=%"struct.std::_Vector_base"*] [debug line = 365:4]
  %93 = call %"class.std::ios_base::Init"* @_ZNSt12_Vector_baseISt6vectorISsSaISsEESaIS2_EE19_M_get_Tp_allocatorEv(%"struct.std::_Vector_base"* %92), !dbg !4967 ; [#uses=1 type=%"class.std::ios_base::Init"*] [debug line = 365:4]
  call void @_ZSt8_DestroyIPSt6vectorISsSaISsEES2_EvT_S4_RSaIT0_E(%"class.std::vector.3"* %87, %"class.std::vector.3"* %91, %"class.std::ios_base::Init"* %93), !dbg !4967 ; [debug line = 365:4]
  %94 = bitcast %"class.std::vector"* %4 to %"struct.std::_Vector_base"*, !dbg !4968 ; [#uses=1 type=%"struct.std::_Vector_base"*] [debug line = 366:4]
  %95 = bitcast %"class.std::vector"* %4 to %"struct.std::_Vector_base"*, !dbg !4968 ; [#uses=1 type=%"struct.std::_Vector_base"*] [debug line = 366:4]
  %96 = getelementptr inbounds %"struct.std::_Vector_base"* %95, i32 0, i32 0, !dbg !4968 ; [#uses=1 type=%"struct.std::_Vector_base<std::vector<std::basic_string<char>, std::allocator<std::basic_string<char> > >, std::allocator<std::vector<std::basic_string<char>, std::allocator<std::basic_string<char> > > > >::_Vector_impl"*] [debug line = 366:4]
  %97 = getelementptr inbounds %"struct.std::_Vector_base<std::vector<std::basic_string<char>, std::allocator<std::basic_string<char> > >, std::allocator<std::vector<std::basic_string<char>, std::allocator<std::basic_string<char> > > > >::_Vector_impl"* %96, i32 0, i32 0, !dbg !4968 ; [#uses=1 type=%"class.std::vector.3"**] [debug line = 366:4]
  %98 = load %"class.std::vector.3"** %97, align 8, !dbg !4968 ; [#uses=1 type=%"class.std::vector.3"*] [debug line = 366:4]
  %99 = bitcast %"class.std::vector"* %4 to %"struct.std::_Vector_base"*, !dbg !4968 ; [#uses=1 type=%"struct.std::_Vector_base"*] [debug line = 366:4]
  %100 = getelementptr inbounds %"struct.std::_Vector_base"* %99, i32 0, i32 0, !dbg !4968 ; [#uses=1 type=%"struct.std::_Vector_base<std::vector<std::basic_string<char>, std::allocator<std::basic_string<char> > >, std::allocator<std::vector<std::basic_string<char>, std::allocator<std::basic_string<char> > > > >::_Vector_impl"*] [debug line = 366:4]
  %101 = getelementptr inbounds %"struct.std::_Vector_base<std::vector<std::basic_string<char>, std::allocator<std::basic_string<char> > >, std::allocator<std::vector<std::basic_string<char>, std::allocator<std::basic_string<char> > > > >::_Vector_impl"* %100, i32 0, i32 2, !dbg !4968 ; [#uses=1 type=%"class.std::vector.3"**] [debug line = 366:4]
  %102 = load %"class.std::vector.3"** %101, align 8, !dbg !4968 ; [#uses=1 type=%"class.std::vector.3"*] [debug line = 366:4]
  %103 = bitcast %"class.std::vector"* %4 to %"struct.std::_Vector_base"*, !dbg !4968 ; [#uses=1 type=%"struct.std::_Vector_base"*] [debug line = 366:4]
  %104 = getelementptr inbounds %"struct.std::_Vector_base"* %103, i32 0, i32 0, !dbg !4968 ; [#uses=1 type=%"struct.std::_Vector_base<std::vector<std::basic_string<char>, std::allocator<std::basic_string<char> > >, std::allocator<std::vector<std::basic_string<char>, std::allocator<std::basic_string<char> > > > >::_Vector_impl"*] [debug line = 366:4]
  %105 = getelementptr inbounds %"struct.std::_Vector_base<std::vector<std::basic_string<char>, std::allocator<std::basic_string<char> > >, std::allocator<std::vector<std::basic_string<char>, std::allocator<std::basic_string<char> > > > >::_Vector_impl"* %104, i32 0, i32 0, !dbg !4968 ; [#uses=1 type=%"class.std::vector.3"**] [debug line = 366:4]
  %106 = load %"class.std::vector.3"** %105, align 8, !dbg !4968 ; [#uses=1 type=%"class.std::vector.3"*] [debug line = 366:4]
  %107 = ptrtoint %"class.std::vector.3"* %102 to i64, !dbg !4968 ; [#uses=1 type=i64] [debug line = 366:4]
  %108 = ptrtoint %"class.std::vector.3"* %106 to i64, !dbg !4968 ; [#uses=1 type=i64] [debug line = 366:4]
  %109 = sub i64 %107, %108, !dbg !4968           ; [#uses=1 type=i64] [debug line = 366:4]
  %110 = sdiv exact i64 %109, 24, !dbg !4968      ; [#uses=1 type=i64] [debug line = 366:4]
  call void @_ZNSt12_Vector_baseISt6vectorISsSaISsEESaIS2_EE13_M_deallocateEPS2_m(%"struct.std::_Vector_base"* %94, %"class.std::vector.3"* %98, i64 %110), !dbg !4968 ; [debug line = 366:4]
  %111 = load %"class.std::vector.3"** %__new_start, align 8, !dbg !4969 ; [#uses=1 type=%"class.std::vector.3"*] [debug line = 369:4]
  %112 = bitcast %"class.std::vector"* %4 to %"struct.std::_Vector_base"*, !dbg !4969 ; [#uses=1 type=%"struct.std::_Vector_base"*] [debug line = 369:4]
  %113 = getelementptr inbounds %"struct.std::_Vector_base"* %112, i32 0, i32 0, !dbg !4969 ; [#uses=1 type=%"struct.std::_Vector_base<std::vector<std::basic_string<char>, std::allocator<std::basic_string<char> > >, std::allocator<std::vector<std::basic_string<char>, std::allocator<std::basic_string<char> > > > >::_Vector_impl"*] [debug line = 369:4]
  %114 = getelementptr inbounds %"struct.std::_Vector_base<std::vector<std::basic_string<char>, std::allocator<std::basic_string<char> > >, std::allocator<std::vector<std::basic_string<char>, std::allocator<std::basic_string<char> > > > >::_Vector_impl"* %113, i32 0, i32 0, !dbg !4969 ; [#uses=1 type=%"class.std::vector.3"**] [debug line = 369:4]
  store %"class.std::vector.3"* %111, %"class.std::vector.3"** %114, align 8, !dbg !4969 ; [debug line = 369:4]
  %115 = load %"class.std::vector.3"** %__new_finish, align 8, !dbg !4970 ; [#uses=1 type=%"class.std::vector.3"*] [debug line = 370:4]
  %116 = bitcast %"class.std::vector"* %4 to %"struct.std::_Vector_base"*, !dbg !4970 ; [#uses=1 type=%"struct.std::_Vector_base"*] [debug line = 370:4]
  %117 = getelementptr inbounds %"struct.std::_Vector_base"* %116, i32 0, i32 0, !dbg !4970 ; [#uses=1 type=%"struct.std::_Vector_base<std::vector<std::basic_string<char>, std::allocator<std::basic_string<char> > >, std::allocator<std::vector<std::basic_string<char>, std::allocator<std::basic_string<char> > > > >::_Vector_impl"*] [debug line = 370:4]
  %118 = getelementptr inbounds %"struct.std::_Vector_base<std::vector<std::basic_string<char>, std::allocator<std::basic_string<char> > >, std::allocator<std::vector<std::basic_string<char>, std::allocator<std::basic_string<char> > > > >::_Vector_impl"* %117, i32 0, i32 1, !dbg !4970 ; [#uses=1 type=%"class.std::vector.3"**] [debug line = 370:4]
  store %"class.std::vector.3"* %115, %"class.std::vector.3"** %118, align 8, !dbg !4970 ; [debug line = 370:4]
  %119 = load %"class.std::vector.3"** %__new_start, align 8, !dbg !4971 ; [#uses=1 type=%"class.std::vector.3"*] [debug line = 371:4]
  %120 = load i64* %__len, align 8, !dbg !4971    ; [#uses=1 type=i64] [debug line = 371:4]
  %121 = getelementptr inbounds %"class.std::vector.3"* %119, i64 %120, !dbg !4971 ; [#uses=1 type=%"class.std::vector.3"*] [debug line = 371:4]
  %122 = bitcast %"class.std::vector"* %4 to %"struct.std::_Vector_base"*, !dbg !4971 ; [#uses=1 type=%"struct.std::_Vector_base"*] [debug line = 371:4]
  %123 = getelementptr inbounds %"struct.std::_Vector_base"* %122, i32 0, i32 0, !dbg !4971 ; [#uses=1 type=%"struct.std::_Vector_base<std::vector<std::basic_string<char>, std::allocator<std::basic_string<char> > >, std::allocator<std::vector<std::basic_string<char>, std::allocator<std::basic_string<char> > > > >::_Vector_impl"*] [debug line = 371:4]
  %124 = getelementptr inbounds %"struct.std::_Vector_base<std::vector<std::basic_string<char>, std::allocator<std::basic_string<char> > >, std::allocator<std::vector<std::basic_string<char>, std::allocator<std::basic_string<char> > > > >::_Vector_impl"* %123, i32 0, i32 2, !dbg !4971 ; [#uses=1 type=%"class.std::vector.3"**] [debug line = 371:4]
  store %"class.std::vector.3"* %121, %"class.std::vector.3"** %124, align 8, !dbg !4971 ; [debug line = 371:4]
  br label %125

; <label>:125                                     ; preds = %48, %14
  ret void, !dbg !4972                            ; [debug line = 373:5]
}

; [#uses=1]
define linkonce_odr void @_ZNSt6vectorIS_ISsSaISsEESaIS1_EE3endEv(%"class.__gnu_cxx::__normal_iterator"* noalias sret %agg.result, %"class.std::vector"* %this) nounwind uwtable align 2 {
  %1 = alloca %"class.std::vector"*, align 8      ; [#uses=2 type=%"class.std::vector"**]
  store %"class.std::vector"* %this, %"class.std::vector"** %1, align 8
  call void @llvm.dbg.declare(metadata !{%"class.std::vector"** %1}, metadata !4973), !dbg !4974 ; [debug line = 481:7] [debug variable = this]
  %2 = load %"class.std::vector"** %1             ; [#uses=1 type=%"class.std::vector"*]
  %3 = bitcast %"class.std::vector"* %2 to %"struct.std::_Vector_base"*, !dbg !4975 ; [#uses=1 type=%"struct.std::_Vector_base"*] [debug line = 482:9]
  %4 = getelementptr inbounds %"struct.std::_Vector_base"* %3, i32 0, i32 0, !dbg !4975 ; [#uses=1 type=%"struct.std::_Vector_base<std::vector<std::basic_string<char>, std::allocator<std::basic_string<char> > >, std::allocator<std::vector<std::basic_string<char>, std::allocator<std::basic_string<char> > > > >::_Vector_impl"*] [debug line = 482:9]
  %5 = getelementptr inbounds %"struct.std::_Vector_base<std::vector<std::basic_string<char>, std::allocator<std::basic_string<char> > >, std::allocator<std::vector<std::basic_string<char>, std::allocator<std::basic_string<char> > > > >::_Vector_impl"* %4, i32 0, i32 1, !dbg !4975 ; [#uses=1 type=%"class.std::vector.3"**] [debug line = 482:9]
  call void @_ZN9__gnu_cxx17__normal_iteratorIPSt6vectorISsSaISsEES1_IS3_SaIS3_EEEC1ERKS4_(%"class.__gnu_cxx::__normal_iterator"* %agg.result, %"class.std::vector.3"** %5), !dbg !4975 ; [debug line = 482:9]
  ret void, !dbg !4975                            ; [debug line = 482:9]
}

; [#uses=2]
define linkonce_odr void @_ZN9__gnu_cxx17__normal_iteratorIPSt6vectorISsSaISsEES1_IS3_SaIS3_EEEC1ERKS4_(%"class.__gnu_cxx::__normal_iterator"* %this, %"class.std::vector.3"** %__i) unnamed_addr nounwind uwtable align 2 {
  %1 = alloca %"class.__gnu_cxx::__normal_iterator"*, align 8 ; [#uses=2 type=%"class.__gnu_cxx::__normal_iterator"**]
  %2 = alloca %"class.std::vector.3"**, align 8   ; [#uses=2 type=%"class.std::vector.3"***]
  store %"class.__gnu_cxx::__normal_iterator"* %this, %"class.__gnu_cxx::__normal_iterator"** %1, align 8
  call void @llvm.dbg.declare(metadata !{%"class.__gnu_cxx::__normal_iterator"** %1}, metadata !4977), !dbg !4979 ; [debug line = 720:7] [debug variable = this]
  store %"class.std::vector.3"** %__i, %"class.std::vector.3"*** %2, align 8
  call void @llvm.dbg.declare(metadata !{%"class.std::vector.3"*** %2}, metadata !4980), !dbg !4981 ; [debug line = 720:42] [debug variable = __i]
  %3 = load %"class.__gnu_cxx::__normal_iterator"** %1 ; [#uses=1 type=%"class.__gnu_cxx::__normal_iterator"*]
  %4 = load %"class.std::vector.3"*** %2, !dbg !4982 ; [#uses=1 type=%"class.std::vector.3"**] [debug line = 720:67]
  call void @_ZN9__gnu_cxx17__normal_iteratorIPSt6vectorISsSaISsEES1_IS3_SaIS3_EEEC2ERKS4_(%"class.__gnu_cxx::__normal_iterator"* %3, %"class.std::vector.3"** %4), !dbg !4982 ; [debug line = 720:67]
  ret void, !dbg !4982                            ; [debug line = 720:67]
}

; [#uses=1]
define linkonce_odr void @_ZN9__gnu_cxx17__normal_iteratorIPSt6vectorISsSaISsEES1_IS3_SaIS3_EEEC2ERKS4_(%"class.__gnu_cxx::__normal_iterator"* %this, %"class.std::vector.3"** %__i) unnamed_addr nounwind uwtable align 2 {
  %1 = alloca %"class.__gnu_cxx::__normal_iterator"*, align 8 ; [#uses=2 type=%"class.__gnu_cxx::__normal_iterator"**]
  %2 = alloca %"class.std::vector.3"**, align 8   ; [#uses=2 type=%"class.std::vector.3"***]
  store %"class.__gnu_cxx::__normal_iterator"* %this, %"class.__gnu_cxx::__normal_iterator"** %1, align 8
  call void @llvm.dbg.declare(metadata !{%"class.__gnu_cxx::__normal_iterator"** %1}, metadata !4983), !dbg !4984 ; [debug line = 720:7] [debug variable = this]
  store %"class.std::vector.3"** %__i, %"class.std::vector.3"*** %2, align 8
  call void @llvm.dbg.declare(metadata !{%"class.std::vector.3"*** %2}, metadata !4985), !dbg !4986 ; [debug line = 720:42] [debug variable = __i]
  %3 = load %"class.__gnu_cxx::__normal_iterator"** %1 ; [#uses=1 type=%"class.__gnu_cxx::__normal_iterator"*]
  %4 = getelementptr inbounds %"class.__gnu_cxx::__normal_iterator"* %3, i32 0, i32 0, !dbg !4987 ; [#uses=1 type=%"class.std::vector.3"**] [debug line = 720:65]
  %5 = load %"class.std::vector.3"*** %2, align 8, !dbg !4987 ; [#uses=1 type=%"class.std::vector.3"**] [debug line = 720:65]
  %6 = load %"class.std::vector.3"** %5, align 8, !dbg !4987 ; [#uses=1 type=%"class.std::vector.3"*] [debug line = 720:65]
  store %"class.std::vector.3"* %6, %"class.std::vector.3"** %4, align 8, !dbg !4987 ; [debug line = 720:65]
  ret void, !dbg !4988                            ; [debug line = 720:67]
}

; [#uses=3]
define linkonce_odr void @_ZNSt6vectorISsSaISsEEC1ERKS1_(%"class.std::vector.3"* %this, %"class.std::vector.3"* %__x) unnamed_addr nounwind uwtable align 2 {
  %1 = alloca %"class.std::vector.3"*, align 8    ; [#uses=2 type=%"class.std::vector.3"**]
  %2 = alloca %"class.std::vector.3"*, align 8    ; [#uses=2 type=%"class.std::vector.3"**]
  store %"class.std::vector.3"* %this, %"class.std::vector.3"** %1, align 8
  call void @llvm.dbg.declare(metadata !{%"class.std::vector.3"** %1}, metadata !4990), !dbg !4991 ; [debug line = 278:2] [debug variable = this]
  store %"class.std::vector.3"* %__x, %"class.std::vector.3"** %2, align 8
  call void @llvm.dbg.declare(metadata !{%"class.std::vector.3"** %2}, metadata !4992), !dbg !4993 ; [debug line = 278:23] [debug variable = __x]
  %3 = load %"class.std::vector.3"** %1           ; [#uses=1 type=%"class.std::vector.3"*]
  %4 = load %"class.std::vector.3"** %2, !dbg !4994 ; [#uses=1 type=%"class.std::vector.3"*] [debug line = 284:7]
  call void @_ZNSt6vectorISsSaISsEEC2ERKS1_(%"class.std::vector.3"* %3, %"class.std::vector.3"* %4), !dbg !4994 ; [debug line = 284:7]
  ret void, !dbg !4994                            ; [debug line = 284:7]
}

; [#uses=1]
define linkonce_odr %"class.std::vector.3"* @_ZSt13copy_backwardIPSt6vectorISsSaISsEES3_ET0_T_S5_S4_(%"class.std::vector.3"* %__first, %"class.std::vector.3"* %__last, %"class.std::vector.3"* %__result) nounwind uwtable inlinehint {
  %1 = alloca %"class.std::vector.3"*, align 8    ; [#uses=2 type=%"class.std::vector.3"**]
  %2 = alloca %"class.std::vector.3"*, align 8    ; [#uses=2 type=%"class.std::vector.3"**]
  %3 = alloca %"class.std::vector.3"*, align 8    ; [#uses=2 type=%"class.std::vector.3"**]
  store %"class.std::vector.3"* %__first, %"class.std::vector.3"** %1, align 8
  call void @llvm.dbg.declare(metadata !{%"class.std::vector.3"** %1}, metadata !4995), !dbg !4996 ; [debug line = 613:24] [debug variable = __first]
  store %"class.std::vector.3"* %__last, %"class.std::vector.3"** %2, align 8
  call void @llvm.dbg.declare(metadata !{%"class.std::vector.3"** %2}, metadata !4997), !dbg !4998 ; [debug line = 613:38] [debug variable = __last]
  store %"class.std::vector.3"* %__result, %"class.std::vector.3"** %3, align 8
  call void @llvm.dbg.declare(metadata !{%"class.std::vector.3"** %3}, metadata !4999), !dbg !5000 ; [debug line = 613:51] [debug variable = __result]
  %4 = load %"class.std::vector.3"** %1, align 8, !dbg !5001 ; [#uses=1 type=%"class.std::vector.3"*] [debug line = 624:9]
  %5 = call %"class.std::vector.3"* @_ZSt12__miter_baseIPSt6vectorISsSaISsEEENSt11_Miter_baseIT_E13iterator_typeES5_(%"class.std::vector.3"* %4), !dbg !5001 ; [#uses=1 type=%"class.std::vector.3"*] [debug line = 624:9]
  %6 = load %"class.std::vector.3"** %2, align 8, !dbg !5003 ; [#uses=1 type=%"class.std::vector.3"*] [debug line = 624:37]
  %7 = call %"class.std::vector.3"* @_ZSt12__miter_baseIPSt6vectorISsSaISsEEENSt11_Miter_baseIT_E13iterator_typeES5_(%"class.std::vector.3"* %6), !dbg !5003 ; [#uses=1 type=%"class.std::vector.3"*] [debug line = 624:37]
  %8 = load %"class.std::vector.3"** %3, align 8, !dbg !5003 ; [#uses=1 type=%"class.std::vector.3"*] [debug line = 624:37]
  %9 = call %"class.std::vector.3"* @_ZSt23__copy_move_backward_a2ILb0EPSt6vectorISsSaISsEES3_ET1_T0_S5_S4_(%"class.std::vector.3"* %5, %"class.std::vector.3"* %7, %"class.std::vector.3"* %8), !dbg !5003 ; [#uses=1 type=%"class.std::vector.3"*] [debug line = 624:37]
  ret %"class.std::vector.3"* %9, !dbg !5003      ; [debug line = 624:37]
}

; [#uses=5]
define linkonce_odr %"class.std::vector.3"** @_ZNK9__gnu_cxx17__normal_iteratorIPSt6vectorISsSaISsEES1_IS3_SaIS3_EEE4baseEv(%"class.__gnu_cxx::__normal_iterator"* %this) nounwind uwtable align 2 {
  %1 = alloca %"class.__gnu_cxx::__normal_iterator"*, align 8 ; [#uses=2 type=%"class.__gnu_cxx::__normal_iterator"**]
  store %"class.__gnu_cxx::__normal_iterator"* %this, %"class.__gnu_cxx::__normal_iterator"** %1, align 8
  call void @llvm.dbg.declare(metadata !{%"class.__gnu_cxx::__normal_iterator"** %1}, metadata !5004), !dbg !5006 ; [debug line = 784:7] [debug variable = this]
  %2 = load %"class.__gnu_cxx::__normal_iterator"** %1 ; [#uses=1 type=%"class.__gnu_cxx::__normal_iterator"*]
  %3 = getelementptr inbounds %"class.__gnu_cxx::__normal_iterator"* %2, i32 0, i32 0, !dbg !5007 ; [#uses=1 type=%"class.std::vector.3"**] [debug line = 785:9]
  ret %"class.std::vector.3"** %3, !dbg !5007     ; [debug line = 785:9]
}

; [#uses=1]
define linkonce_odr %"class.std::vector.3"* @_ZNK9__gnu_cxx17__normal_iteratorIPSt6vectorISsSaISsEES1_IS3_SaIS3_EEEdeEv(%"class.__gnu_cxx::__normal_iterator"* %this) nounwind uwtable align 2 {
  %1 = alloca %"class.__gnu_cxx::__normal_iterator"*, align 8 ; [#uses=2 type=%"class.__gnu_cxx::__normal_iterator"**]
  store %"class.__gnu_cxx::__normal_iterator"* %this, %"class.__gnu_cxx::__normal_iterator"** %1, align 8
  call void @llvm.dbg.declare(metadata !{%"class.__gnu_cxx::__normal_iterator"** %1}, metadata !5009), !dbg !5010 ; [debug line = 732:7] [debug variable = this]
  %2 = load %"class.__gnu_cxx::__normal_iterator"** %1 ; [#uses=1 type=%"class.__gnu_cxx::__normal_iterator"*]
  %3 = getelementptr inbounds %"class.__gnu_cxx::__normal_iterator"* %2, i32 0, i32 0, !dbg !5011 ; [#uses=1 type=%"class.std::vector.3"**] [debug line = 733:9]
  %4 = load %"class.std::vector.3"** %3, align 8, !dbg !5011 ; [#uses=1 type=%"class.std::vector.3"*] [debug line = 733:9]
  ret %"class.std::vector.3"* %4, !dbg !5011      ; [debug line = 733:9]
}

; [#uses=2]
define linkonce_odr %"class.std::vector.3"* @_ZNSt6vectorISsSaISsEEaSERKS1_(%"class.std::vector.3"* %this, %"class.std::vector.3"* %__x) nounwind uwtable align 2 {
  %1 = alloca %"class.std::vector.3"*, align 8    ; [#uses=2 type=%"class.std::vector.3"**]
  %2 = alloca %"class.std::vector.3"*, align 8    ; [#uses=11 type=%"class.std::vector.3"**]
  %__xlen = alloca i64, align 8                   ; [#uses=6 type=i64*]
  %__tmp = alloca %"class.std::basic_string"*, align 8 ; [#uses=2 type=%"class.std::basic_string"**]
  %3 = alloca %"class.__gnu_cxx::__normal_iterator.18", align 8 ; [#uses=2 type=%"class.__gnu_cxx::__normal_iterator.18"*]
  %4 = alloca %"class.__gnu_cxx::__normal_iterator.18", align 8 ; [#uses=2 type=%"class.__gnu_cxx::__normal_iterator.18"*]
  %5 = alloca %"class.__gnu_cxx::__normal_iterator.18", align 8 ; [#uses=2 type=%"class.__gnu_cxx::__normal_iterator.18"*]
  %6 = alloca %"class.__gnu_cxx::__normal_iterator.18", align 8 ; [#uses=2 type=%"class.__gnu_cxx::__normal_iterator.18"*]
  %7 = alloca %"class.__gnu_cxx::__normal_iterator.18", align 8 ; [#uses=2 type=%"class.__gnu_cxx::__normal_iterator.18"*]
  %8 = alloca %"class.__gnu_cxx::__normal_iterator.18", align 8 ; [#uses=2 type=%"class.__gnu_cxx::__normal_iterator.18"*]
  %9 = alloca %"class.__gnu_cxx::__normal_iterator.18", align 8 ; [#uses=2 type=%"class.__gnu_cxx::__normal_iterator.18"*]
  store %"class.std::vector.3"* %this, %"class.std::vector.3"** %1, align 8
  call void @llvm.dbg.declare(metadata !{%"class.std::vector.3"** %1}, metadata !5013), !dbg !5014 ; [debug line = 362:7] [debug variable = this]
  store %"class.std::vector.3"* %__x, %"class.std::vector.3"** %2, align 8
  call void @llvm.dbg.declare(metadata !{%"class.std::vector.3"** %2}, metadata !5015), !dbg !5016 ; [debug line = 362:31] [debug variable = __x]
  %10 = load %"class.std::vector.3"** %1          ; [#uses=25 type=%"class.std::vector.3"*]
  %11 = load %"class.std::vector.3"** %2, align 8, !dbg !5017 ; [#uses=1 type=%"class.std::vector.3"*] [debug line = 164:7]
  %12 = icmp ne %"class.std::vector.3"* %11, %10, !dbg !5017 ; [#uses=1 type=i1] [debug line = 164:7]
  br i1 %12, label %13, label %121, !dbg !5017    ; [debug line = 164:7]

; <label>:13                                      ; preds = %0
  call void @llvm.dbg.declare(metadata !{i64* %__xlen}, metadata !5019), !dbg !5021 ; [debug line = 166:20] [debug variable = __xlen]
  %14 = load %"class.std::vector.3"** %2, align 8, !dbg !5022 ; [#uses=1 type=%"class.std::vector.3"*] [debug line = 166:29]
  %15 = call i64 @_ZNKSt6vectorISsSaISsEE4sizeEv(%"class.std::vector.3"* %14), !dbg !5022 ; [#uses=1 type=i64] [debug line = 166:29]
  store i64 %15, i64* %__xlen, align 8, !dbg !5022 ; [debug line = 166:29]
  %16 = load i64* %__xlen, align 8, !dbg !5023    ; [#uses=1 type=i64] [debug line = 167:4]
  %17 = call i64 @_ZNKSt6vectorISsSaISsEE8capacityEv(%"class.std::vector.3"* %10), !dbg !5024 ; [#uses=1 type=i64] [debug line = 167:17]
  %18 = icmp ugt i64 %16, %17, !dbg !5024         ; [#uses=1 type=i1] [debug line = 167:17]
  br i1 %18, label %19, label %64, !dbg !5024     ; [debug line = 167:17]

; <label>:19                                      ; preds = %13
  call void @llvm.dbg.declare(metadata !{%"class.std::basic_string"** %__tmp}, metadata !5025), !dbg !5027 ; [debug line = 169:16] [debug variable = __tmp]
  %20 = load i64* %__xlen, align 8, !dbg !5028    ; [#uses=1 type=i64] [debug line = 169:24]
  %21 = load %"class.std::vector.3"** %2, align 8, !dbg !5029 ; [#uses=1 type=%"class.std::vector.3"*] [debug line = 169:53]
  call void @_ZNKSt6vectorISsSaISsEE5beginEv(%"class.__gnu_cxx::__normal_iterator.18"* sret %3, %"class.std::vector.3"* %21), !dbg !5029 ; [debug line = 169:53]
  %22 = load %"class.std::vector.3"** %2, align 8, !dbg !5030 ; [#uses=1 type=%"class.std::vector.3"*] [debug line = 170:10]
  call void @_ZNKSt6vectorISsSaISsEE3endEv(%"class.__gnu_cxx::__normal_iterator.18"* sret %4, %"class.std::vector.3"* %22), !dbg !5030 ; [debug line = 170:10]
  %23 = call %"class.std::basic_string"* @_ZNSt6vectorISsSaISsEE20_M_allocate_and_copyIN9__gnu_cxx17__normal_iteratorIPKSsS1_EEEEPSsmT_S9_(%"class.std::vector.3"* %10, i64 %20, %"class.__gnu_cxx::__normal_iterator.18"* byval align 8 %3, %"class.__gnu_cxx::__normal_iterator.18"* byval align 8 %4), !dbg !5030 ; [#uses=1 type=%"class.std::basic_string"*] [debug line = 170:10]
  store %"class.std::basic_string"* %23, %"class.std::basic_string"** %__tmp, align 8, !dbg !5030 ; [debug line = 170:10]
  %24 = bitcast %"class.std::vector.3"* %10 to %"struct.std::_Vector_base.4"*, !dbg !5031 ; [#uses=1 type=%"struct.std::_Vector_base.4"*] [debug line = 171:8]
  %25 = getelementptr inbounds %"struct.std::_Vector_base.4"* %24, i32 0, i32 0, !dbg !5031 ; [#uses=1 type=%"struct.std::_Vector_base<std::basic_string<char>, std::allocator<std::basic_string<char> > >::_Vector_impl"*] [debug line = 171:8]
  %26 = getelementptr inbounds %"struct.std::_Vector_base<std::basic_string<char>, std::allocator<std::basic_string<char> > >::_Vector_impl"* %25, i32 0, i32 0, !dbg !5031 ; [#uses=1 type=%"class.std::basic_string"**] [debug line = 171:8]
  %27 = load %"class.std::basic_string"** %26, align 8, !dbg !5031 ; [#uses=1 type=%"class.std::basic_string"*] [debug line = 171:8]
  %28 = bitcast %"class.std::vector.3"* %10 to %"struct.std::_Vector_base.4"*, !dbg !5031 ; [#uses=1 type=%"struct.std::_Vector_base.4"*] [debug line = 171:8]
  %29 = getelementptr inbounds %"struct.std::_Vector_base.4"* %28, i32 0, i32 0, !dbg !5031 ; [#uses=1 type=%"struct.std::_Vector_base<std::basic_string<char>, std::allocator<std::basic_string<char> > >::_Vector_impl"*] [debug line = 171:8]
  %30 = getelementptr inbounds %"struct.std::_Vector_base<std::basic_string<char>, std::allocator<std::basic_string<char> > >::_Vector_impl"* %29, i32 0, i32 1, !dbg !5031 ; [#uses=1 type=%"class.std::basic_string"**] [debug line = 171:8]
  %31 = load %"class.std::basic_string"** %30, align 8, !dbg !5031 ; [#uses=1 type=%"class.std::basic_string"*] [debug line = 171:8]
  %32 = bitcast %"class.std::vector.3"* %10 to %"struct.std::_Vector_base.4"*, !dbg !5032 ; [#uses=1 type=%"struct.std::_Vector_base.4"*] [debug line = 172:8]
  %33 = call %"class.std::ios_base::Init"* @_ZNSt12_Vector_baseISsSaISsEE19_M_get_Tp_allocatorEv(%"struct.std::_Vector_base.4"* %32), !dbg !5032 ; [#uses=1 type=%"class.std::ios_base::Init"*] [debug line = 172:8]
  call void @_ZSt8_DestroyIPSsSsEvT_S1_RSaIT0_E(%"class.std::basic_string"* %27, %"class.std::basic_string"* %31, %"class.std::ios_base::Init"* %33), !dbg !5032 ; [debug line = 172:8]
  %34 = bitcast %"class.std::vector.3"* %10 to %"struct.std::_Vector_base.4"*, !dbg !5033 ; [#uses=1 type=%"struct.std::_Vector_base.4"*] [debug line = 173:8]
  %35 = bitcast %"class.std::vector.3"* %10 to %"struct.std::_Vector_base.4"*, !dbg !5033 ; [#uses=1 type=%"struct.std::_Vector_base.4"*] [debug line = 173:8]
  %36 = getelementptr inbounds %"struct.std::_Vector_base.4"* %35, i32 0, i32 0, !dbg !5033 ; [#uses=1 type=%"struct.std::_Vector_base<std::basic_string<char>, std::allocator<std::basic_string<char> > >::_Vector_impl"*] [debug line = 173:8]
  %37 = getelementptr inbounds %"struct.std::_Vector_base<std::basic_string<char>, std::allocator<std::basic_string<char> > >::_Vector_impl"* %36, i32 0, i32 0, !dbg !5033 ; [#uses=1 type=%"class.std::basic_string"**] [debug line = 173:8]
  %38 = load %"class.std::basic_string"** %37, align 8, !dbg !5033 ; [#uses=1 type=%"class.std::basic_string"*] [debug line = 173:8]
  %39 = bitcast %"class.std::vector.3"* %10 to %"struct.std::_Vector_base.4"*, !dbg !5033 ; [#uses=1 type=%"struct.std::_Vector_base.4"*] [debug line = 173:8]
  %40 = getelementptr inbounds %"struct.std::_Vector_base.4"* %39, i32 0, i32 0, !dbg !5033 ; [#uses=1 type=%"struct.std::_Vector_base<std::basic_string<char>, std::allocator<std::basic_string<char> > >::_Vector_impl"*] [debug line = 173:8]
  %41 = getelementptr inbounds %"struct.std::_Vector_base<std::basic_string<char>, std::allocator<std::basic_string<char> > >::_Vector_impl"* %40, i32 0, i32 2, !dbg !5033 ; [#uses=1 type=%"class.std::basic_string"**] [debug line = 173:8]
  %42 = load %"class.std::basic_string"** %41, align 8, !dbg !5033 ; [#uses=1 type=%"class.std::basic_string"*] [debug line = 173:8]
  %43 = bitcast %"class.std::vector.3"* %10 to %"struct.std::_Vector_base.4"*, !dbg !5033 ; [#uses=1 type=%"struct.std::_Vector_base.4"*] [debug line = 173:8]
  %44 = getelementptr inbounds %"struct.std::_Vector_base.4"* %43, i32 0, i32 0, !dbg !5033 ; [#uses=1 type=%"struct.std::_Vector_base<std::basic_string<char>, std::allocator<std::basic_string<char> > >::_Vector_impl"*] [debug line = 173:8]
  %45 = getelementptr inbounds %"struct.std::_Vector_base<std::basic_string<char>, std::allocator<std::basic_string<char> > >::_Vector_impl"* %44, i32 0, i32 0, !dbg !5033 ; [#uses=1 type=%"class.std::basic_string"**] [debug line = 173:8]
  %46 = load %"class.std::basic_string"** %45, align 8, !dbg !5033 ; [#uses=1 type=%"class.std::basic_string"*] [debug line = 173:8]
  %47 = ptrtoint %"class.std::basic_string"* %42 to i64, !dbg !5033 ; [#uses=1 type=i64] [debug line = 173:8]
  %48 = ptrtoint %"class.std::basic_string"* %46 to i64, !dbg !5033 ; [#uses=1 type=i64] [debug line = 173:8]
  %49 = sub i64 %47, %48, !dbg !5033              ; [#uses=1 type=i64] [debug line = 173:8]
  %50 = sdiv exact i64 %49, 8, !dbg !5033         ; [#uses=1 type=i64] [debug line = 173:8]
  call void @_ZNSt12_Vector_baseISsSaISsEE13_M_deallocateEPSsm(%"struct.std::_Vector_base.4"* %34, %"class.std::basic_string"* %38, i64 %50), !dbg !5033 ; [debug line = 173:8]
  %51 = load %"class.std::basic_string"** %__tmp, align 8, !dbg !5034 ; [#uses=1 type=%"class.std::basic_string"*] [debug line = 176:8]
  %52 = bitcast %"class.std::vector.3"* %10 to %"struct.std::_Vector_base.4"*, !dbg !5034 ; [#uses=1 type=%"struct.std::_Vector_base.4"*] [debug line = 176:8]
  %53 = getelementptr inbounds %"struct.std::_Vector_base.4"* %52, i32 0, i32 0, !dbg !5034 ; [#uses=1 type=%"struct.std::_Vector_base<std::basic_string<char>, std::allocator<std::basic_string<char> > >::_Vector_impl"*] [debug line = 176:8]
  %54 = getelementptr inbounds %"struct.std::_Vector_base<std::basic_string<char>, std::allocator<std::basic_string<char> > >::_Vector_impl"* %53, i32 0, i32 0, !dbg !5034 ; [#uses=1 type=%"class.std::basic_string"**] [debug line = 176:8]
  store %"class.std::basic_string"* %51, %"class.std::basic_string"** %54, align 8, !dbg !5034 ; [debug line = 176:8]
  %55 = bitcast %"class.std::vector.3"* %10 to %"struct.std::_Vector_base.4"*, !dbg !5035 ; [#uses=1 type=%"struct.std::_Vector_base.4"*] [debug line = 177:8]
  %56 = getelementptr inbounds %"struct.std::_Vector_base.4"* %55, i32 0, i32 0, !dbg !5035 ; [#uses=1 type=%"struct.std::_Vector_base<std::basic_string<char>, std::allocator<std::basic_string<char> > >::_Vector_impl"*] [debug line = 177:8]
  %57 = getelementptr inbounds %"struct.std::_Vector_base<std::basic_string<char>, std::allocator<std::basic_string<char> > >::_Vector_impl"* %56, i32 0, i32 0, !dbg !5035 ; [#uses=1 type=%"class.std::basic_string"**] [debug line = 177:8]
  %58 = load %"class.std::basic_string"** %57, align 8, !dbg !5035 ; [#uses=1 type=%"class.std::basic_string"*] [debug line = 177:8]
  %59 = load i64* %__xlen, align 8, !dbg !5035    ; [#uses=1 type=i64] [debug line = 177:8]
  %60 = getelementptr inbounds %"class.std::basic_string"* %58, i64 %59, !dbg !5035 ; [#uses=1 type=%"class.std::basic_string"*] [debug line = 177:8]
  %61 = bitcast %"class.std::vector.3"* %10 to %"struct.std::_Vector_base.4"*, !dbg !5035 ; [#uses=1 type=%"struct.std::_Vector_base.4"*] [debug line = 177:8]
  %62 = getelementptr inbounds %"struct.std::_Vector_base.4"* %61, i32 0, i32 0, !dbg !5035 ; [#uses=1 type=%"struct.std::_Vector_base<std::basic_string<char>, std::allocator<std::basic_string<char> > >::_Vector_impl"*] [debug line = 177:8]
  %63 = getelementptr inbounds %"struct.std::_Vector_base<std::basic_string<char>, std::allocator<std::basic_string<char> > >::_Vector_impl"* %62, i32 0, i32 2, !dbg !5035 ; [#uses=1 type=%"class.std::basic_string"**] [debug line = 177:8]
  store %"class.std::basic_string"* %60, %"class.std::basic_string"** %63, align 8, !dbg !5035 ; [debug line = 177:8]
  br label %111, !dbg !5036                       ; [debug line = 178:6]

; <label>:64                                      ; preds = %13
  %65 = call i64 @_ZNKSt6vectorISsSaISsEE4sizeEv(%"class.std::vector.3"* %10), !dbg !5037 ; [#uses=1 type=i64] [debug line = 179:13]
  %66 = load i64* %__xlen, align 8, !dbg !5037    ; [#uses=1 type=i64] [debug line = 179:13]
  %67 = icmp uge i64 %65, %66, !dbg !5037         ; [#uses=1 type=i1] [debug line = 179:13]
  br i1 %67, label %68, label %73, !dbg !5037     ; [debug line = 179:13]

; <label>:68                                      ; preds = %64
  %69 = load %"class.std::vector.3"** %2, align 8, !dbg !5038 ; [#uses=1 type=%"class.std::vector.3"*] [debug line = 181:32]
  call void @_ZNKSt6vectorISsSaISsEE5beginEv(%"class.__gnu_cxx::__normal_iterator.18"* sret %6, %"class.std::vector.3"* %69), !dbg !5038 ; [debug line = 181:32]
  %70 = load %"class.std::vector.3"** %2, align 8, !dbg !5040 ; [#uses=1 type=%"class.std::vector.3"*] [debug line = 181:45]
  call void @_ZNKSt6vectorISsSaISsEE3endEv(%"class.__gnu_cxx::__normal_iterator.18"* sret %7, %"class.std::vector.3"* %70), !dbg !5040 ; [debug line = 181:45]
  call void @_ZNSt6vectorISsSaISsEE5beginEv(%"class.__gnu_cxx::__normal_iterator.18"* sret %8, %"class.std::vector.3"* %10), !dbg !5041 ; [debug line = 181:56]
  call void @_ZSt4copyIN9__gnu_cxx17__normal_iteratorIPKSsSt6vectorISsSaISsEEEENS1_IPSsS6_EEET0_T_SB_SA_(%"class.__gnu_cxx::__normal_iterator.18"* sret %5, %"class.__gnu_cxx::__normal_iterator.18"* byval align 8 %6, %"class.__gnu_cxx::__normal_iterator.18"* byval align 8 %7, %"class.__gnu_cxx::__normal_iterator.18"* byval align 8 %8), !dbg !5041 ; [debug line = 181:56]
  call void @_ZNSt6vectorISsSaISsEE3endEv(%"class.__gnu_cxx::__normal_iterator.18"* sret %9, %"class.std::vector.3"* %10), !dbg !5042 ; [debug line = 182:8]
  %71 = bitcast %"class.std::vector.3"* %10 to %"struct.std::_Vector_base.4"*, !dbg !5043 ; [#uses=1 type=%"struct.std::_Vector_base.4"*] [debug line = 182:15]
  %72 = call %"class.std::ios_base::Init"* @_ZNSt12_Vector_baseISsSaISsEE19_M_get_Tp_allocatorEv(%"struct.std::_Vector_base.4"* %71), !dbg !5043 ; [#uses=1 type=%"class.std::ios_base::Init"*] [debug line = 182:15]
  call void @_ZSt8_DestroyIN9__gnu_cxx17__normal_iteratorIPSsSt6vectorISsSaISsEEEESsEvT_S7_RSaIT0_E(%"class.__gnu_cxx::__normal_iterator.18"* byval align 8 %5, %"class.__gnu_cxx::__normal_iterator.18"* byval align 8 %9, %"class.std::ios_base::Init"* %72), !dbg !5043 ; [debug line = 182:15]
  br label %110, !dbg !5044                       ; [debug line = 183:6]

; <label>:73                                      ; preds = %64
  %74 = load %"class.std::vector.3"** %2, align 8, !dbg !5045 ; [#uses=1 type=%"class.std::vector.3"*] [debug line = 186:8]
  %75 = bitcast %"class.std::vector.3"* %74 to %"struct.std::_Vector_base.4"*, !dbg !5045 ; [#uses=1 type=%"struct.std::_Vector_base.4"*] [debug line = 186:8]
  %76 = getelementptr inbounds %"struct.std::_Vector_base.4"* %75, i32 0, i32 0, !dbg !5045 ; [#uses=1 type=%"struct.std::_Vector_base<std::basic_string<char>, std::allocator<std::basic_string<char> > >::_Vector_impl"*] [debug line = 186:8]
  %77 = getelementptr inbounds %"struct.std::_Vector_base<std::basic_string<char>, std::allocator<std::basic_string<char> > >::_Vector_impl"* %76, i32 0, i32 0, !dbg !5045 ; [#uses=1 type=%"class.std::basic_string"**] [debug line = 186:8]
  %78 = load %"class.std::basic_string"** %77, align 8, !dbg !5045 ; [#uses=1 type=%"class.std::basic_string"*] [debug line = 186:8]
  %79 = load %"class.std::vector.3"** %2, align 8, !dbg !5045 ; [#uses=1 type=%"class.std::vector.3"*] [debug line = 186:8]
  %80 = bitcast %"class.std::vector.3"* %79 to %"struct.std::_Vector_base.4"*, !dbg !5045 ; [#uses=1 type=%"struct.std::_Vector_base.4"*] [debug line = 186:8]
  %81 = getelementptr inbounds %"struct.std::_Vector_base.4"* %80, i32 0, i32 0, !dbg !5045 ; [#uses=1 type=%"struct.std::_Vector_base<std::basic_string<char>, std::allocator<std::basic_string<char> > >::_Vector_impl"*] [debug line = 186:8]
  %82 = getelementptr inbounds %"struct.std::_Vector_base<std::basic_string<char>, std::allocator<std::basic_string<char> > >::_Vector_impl"* %81, i32 0, i32 0, !dbg !5045 ; [#uses=1 type=%"class.std::basic_string"**] [debug line = 186:8]
  %83 = load %"class.std::basic_string"** %82, align 8, !dbg !5045 ; [#uses=1 type=%"class.std::basic_string"*] [debug line = 186:8]
  %84 = call i64 @_ZNKSt6vectorISsSaISsEE4sizeEv(%"class.std::vector.3"* %10), !dbg !5047 ; [#uses=1 type=i64] [debug line = 186:63]
  %85 = getelementptr inbounds %"class.std::basic_string"* %83, i64 %84, !dbg !5047 ; [#uses=1 type=%"class.std::basic_string"*] [debug line = 186:63]
  %86 = bitcast %"class.std::vector.3"* %10 to %"struct.std::_Vector_base.4"*, !dbg !5047 ; [#uses=1 type=%"struct.std::_Vector_base.4"*] [debug line = 186:63]
  %87 = getelementptr inbounds %"struct.std::_Vector_base.4"* %86, i32 0, i32 0, !dbg !5047 ; [#uses=1 type=%"struct.std::_Vector_base<std::basic_string<char>, std::allocator<std::basic_string<char> > >::_Vector_impl"*] [debug line = 186:63]
  %88 = getelementptr inbounds %"struct.std::_Vector_base<std::basic_string<char>, std::allocator<std::basic_string<char> > >::_Vector_impl"* %87, i32 0, i32 0, !dbg !5047 ; [#uses=1 type=%"class.std::basic_string"**] [debug line = 186:63]
  %89 = load %"class.std::basic_string"** %88, align 8, !dbg !5047 ; [#uses=1 type=%"class.std::basic_string"*] [debug line = 186:63]
  %90 = call %"class.std::basic_string"* @_ZSt4copyIPSsS0_ET0_T_S2_S1_(%"class.std::basic_string"* %78, %"class.std::basic_string"* %85, %"class.std::basic_string"* %89), !dbg !5047 ; [#uses=0 type=%"class.std::basic_string"*] [debug line = 186:63]
  %91 = load %"class.std::vector.3"** %2, align 8, !dbg !5048 ; [#uses=1 type=%"class.std::vector.3"*] [debug line = 188:8]
  %92 = bitcast %"class.std::vector.3"* %91 to %"struct.std::_Vector_base.4"*, !dbg !5048 ; [#uses=1 type=%"struct.std::_Vector_base.4"*] [debug line = 188:8]
  %93 = getelementptr inbounds %"struct.std::_Vector_base.4"* %92, i32 0, i32 0, !dbg !5048 ; [#uses=1 type=%"struct.std::_Vector_base<std::basic_string<char>, std::allocator<std::basic_string<char> > >::_Vector_impl"*] [debug line = 188:8]
  %94 = getelementptr inbounds %"struct.std::_Vector_base<std::basic_string<char>, std::allocator<std::basic_string<char> > >::_Vector_impl"* %93, i32 0, i32 0, !dbg !5048 ; [#uses=1 type=%"class.std::basic_string"**] [debug line = 188:8]
  %95 = load %"class.std::basic_string"** %94, align 8, !dbg !5048 ; [#uses=1 type=%"class.std::basic_string"*] [debug line = 188:8]
  %96 = call i64 @_ZNKSt6vectorISsSaISsEE4sizeEv(%"class.std::vector.3"* %10), !dbg !5049 ; [#uses=1 type=i64] [debug line = 188:59]
  %97 = getelementptr inbounds %"class.std::basic_string"* %95, i64 %96, !dbg !5049 ; [#uses=1 type=%"class.std::basic_string"*] [debug line = 188:59]
  %98 = load %"class.std::vector.3"** %2, align 8, !dbg !5049 ; [#uses=1 type=%"class.std::vector.3"*] [debug line = 188:59]
  %99 = bitcast %"class.std::vector.3"* %98 to %"struct.std::_Vector_base.4"*, !dbg !5049 ; [#uses=1 type=%"struct.std::_Vector_base.4"*] [debug line = 188:59]
  %100 = getelementptr inbounds %"struct.std::_Vector_base.4"* %99, i32 0, i32 0, !dbg !5049 ; [#uses=1 type=%"struct.std::_Vector_base<std::basic_string<char>, std::allocator<std::basic_string<char> > >::_Vector_impl"*] [debug line = 188:59]
  %101 = getelementptr inbounds %"struct.std::_Vector_base<std::basic_string<char>, std::allocator<std::basic_string<char> > >::_Vector_impl"* %100, i32 0, i32 1, !dbg !5049 ; [#uses=1 type=%"class.std::basic_string"**] [debug line = 188:59]
  %102 = load %"class.std::basic_string"** %101, align 8, !dbg !5049 ; [#uses=1 type=%"class.std::basic_string"*] [debug line = 188:59]
  %103 = bitcast %"class.std::vector.3"* %10 to %"struct.std::_Vector_base.4"*, !dbg !5049 ; [#uses=1 type=%"struct.std::_Vector_base.4"*] [debug line = 188:59]
  %104 = getelementptr inbounds %"struct.std::_Vector_base.4"* %103, i32 0, i32 0, !dbg !5049 ; [#uses=1 type=%"struct.std::_Vector_base<std::basic_string<char>, std::allocator<std::basic_string<char> > >::_Vector_impl"*] [debug line = 188:59]
  %105 = getelementptr inbounds %"struct.std::_Vector_base<std::basic_string<char>, std::allocator<std::basic_string<char> > >::_Vector_impl"* %104, i32 0, i32 1, !dbg !5049 ; [#uses=1 type=%"class.std::basic_string"**] [debug line = 188:59]
  %106 = load %"class.std::basic_string"** %105, align 8, !dbg !5049 ; [#uses=1 type=%"class.std::basic_string"*] [debug line = 188:59]
  %107 = bitcast %"class.std::vector.3"* %10 to %"struct.std::_Vector_base.4"*, !dbg !5050 ; [#uses=1 type=%"struct.std::_Vector_base.4"*] [debug line = 191:8]
  %108 = call %"class.std::ios_base::Init"* @_ZNSt12_Vector_baseISsSaISsEE19_M_get_Tp_allocatorEv(%"struct.std::_Vector_base.4"* %107), !dbg !5050 ; [#uses=1 type=%"class.std::ios_base::Init"*] [debug line = 191:8]
  %109 = call %"class.std::basic_string"* @_ZSt22__uninitialized_copy_aIPSsS0_SsET0_T_S2_S1_RSaIT1_E(%"class.std::basic_string"* %97, %"class.std::basic_string"* %102, %"class.std::basic_string"* %106, %"class.std::ios_base::Init"* %108), !dbg !5050 ; [#uses=0 type=%"class.std::basic_string"*] [debug line = 191:8]
  br label %110

; <label>:110                                     ; preds = %73, %68
  br label %111

; <label>:111                                     ; preds = %110, %19
  %112 = bitcast %"class.std::vector.3"* %10 to %"struct.std::_Vector_base.4"*, !dbg !5051 ; [#uses=1 type=%"struct.std::_Vector_base.4"*] [debug line = 193:4]
  %113 = getelementptr inbounds %"struct.std::_Vector_base.4"* %112, i32 0, i32 0, !dbg !5051 ; [#uses=1 type=%"struct.std::_Vector_base<std::basic_string<char>, std::allocator<std::basic_string<char> > >::_Vector_impl"*] [debug line = 193:4]
  %114 = getelementptr inbounds %"struct.std::_Vector_base<std::basic_string<char>, std::allocator<std::basic_string<char> > >::_Vector_impl"* %113, i32 0, i32 0, !dbg !5051 ; [#uses=1 type=%"class.std::basic_string"**] [debug line = 193:4]
  %115 = load %"class.std::basic_string"** %114, align 8, !dbg !5051 ; [#uses=1 type=%"class.std::basic_string"*] [debug line = 193:4]
  %116 = load i64* %__xlen, align 8, !dbg !5051   ; [#uses=1 type=i64] [debug line = 193:4]
  %117 = getelementptr inbounds %"class.std::basic_string"* %115, i64 %116, !dbg !5051 ; [#uses=1 type=%"class.std::basic_string"*] [debug line = 193:4]
  %118 = bitcast %"class.std::vector.3"* %10 to %"struct.std::_Vector_base.4"*, !dbg !5051 ; [#uses=1 type=%"struct.std::_Vector_base.4"*] [debug line = 193:4]
  %119 = getelementptr inbounds %"struct.std::_Vector_base.4"* %118, i32 0, i32 0, !dbg !5051 ; [#uses=1 type=%"struct.std::_Vector_base<std::basic_string<char>, std::allocator<std::basic_string<char> > >::_Vector_impl"*] [debug line = 193:4]
  %120 = getelementptr inbounds %"struct.std::_Vector_base<std::basic_string<char>, std::allocator<std::basic_string<char> > >::_Vector_impl"* %119, i32 0, i32 1, !dbg !5051 ; [#uses=1 type=%"class.std::basic_string"**] [debug line = 193:4]
  store %"class.std::basic_string"* %117, %"class.std::basic_string"** %120, align 8, !dbg !5051 ; [debug line = 193:4]
  br label %121, !dbg !5052                       ; [debug line = 194:2]

; <label>:121                                     ; preds = %111, %0
  ret %"class.std::vector.3"* %10, !dbg !5053     ; [debug line = 195:7]
}

; [#uses=1]
define linkonce_odr i64 @_ZNKSt6vectorIS_ISsSaISsEESaIS1_EE12_M_check_lenEmPKc(%"class.std::vector"* %this, i64 %__n, i8* %__s) nounwind uwtable align 2 {
  %1 = alloca %"class.std::vector"*, align 8      ; [#uses=2 type=%"class.std::vector"**]
  %2 = alloca i64, align 8                        ; [#uses=3 type=i64*]
  %3 = alloca i8*, align 8                        ; [#uses=2 type=i8**]
  %__len = alloca i64, align 8                    ; [#uses=4 type=i64*]
  %4 = alloca i64, align 8                        ; [#uses=2 type=i64*]
  store %"class.std::vector"* %this, %"class.std::vector"** %1, align 8
  call void @llvm.dbg.declare(metadata !{%"class.std::vector"** %1}, metadata !5054), !dbg !5055 ; [debug line = 1239:7] [debug variable = this]
  store i64 %__n, i64* %2, align 8
  call void @llvm.dbg.declare(metadata !{i64* %2}, metadata !5056), !dbg !5057 ; [debug line = 1239:30] [debug variable = __n]
  store i8* %__s, i8** %3, align 8
  call void @llvm.dbg.declare(metadata !{i8** %3}, metadata !5058), !dbg !5059 ; [debug line = 1239:47] [debug variable = __s]
  %5 = load %"class.std::vector"** %1             ; [#uses=7 type=%"class.std::vector"*]
  %6 = call i64 @_ZNKSt6vectorIS_ISsSaISsEESaIS1_EE8max_sizeEv(%"class.std::vector"* %5), !dbg !5060 ; [#uses=1 type=i64] [debug line = 1241:6]
  %7 = call i64 @_ZNKSt6vectorIS_ISsSaISsEESaIS1_EE4sizeEv(%"class.std::vector"* %5), !dbg !5062 ; [#uses=1 type=i64] [debug line = 1241:19]
  %8 = sub i64 %6, %7, !dbg !5062                 ; [#uses=1 type=i64] [debug line = 1241:19]
  %9 = load i64* %2, align 8, !dbg !5062          ; [#uses=1 type=i64] [debug line = 1241:19]
  %10 = icmp ult i64 %8, %9, !dbg !5062           ; [#uses=1 type=i1] [debug line = 1241:19]
  br i1 %10, label %11, label %13, !dbg !5062     ; [debug line = 1241:19]

; <label>:11                                      ; preds = %0
  %12 = load i8** %3, align 8, !dbg !5063         ; [#uses=1 type=i8*] [debug line = 1242:4]
  call void @_ZSt20__throw_length_errorPKc(i8* %12) noreturn, !dbg !5063 ; [debug line = 1242:4]
  unreachable, !dbg !5063                         ; [debug line = 1242:4]

; <label>:13                                      ; preds = %0
  call void @llvm.dbg.declare(metadata !{i64* %__len}, metadata !5064), !dbg !5065 ; [debug line = 1244:18] [debug variable = __len]
  %14 = call i64 @_ZNKSt6vectorIS_ISsSaISsEESaIS1_EE4sizeEv(%"class.std::vector"* %5), !dbg !5066 ; [#uses=1 type=i64] [debug line = 1244:26]
  %15 = call i64 @_ZNKSt6vectorIS_ISsSaISsEESaIS1_EE4sizeEv(%"class.std::vector"* %5), !dbg !5067 ; [#uses=1 type=i64] [debug line = 1244:44]
  store i64 %15, i64* %4, align 8, !dbg !5067     ; [debug line = 1244:44]
  %16 = call i64* @_ZSt3maxImERKT_S2_S2_(i64* %4, i64* %2), !dbg !5067 ; [#uses=1 type=i64*] [debug line = 1244:44]
  %17 = load i64* %16, !dbg !5067                 ; [#uses=1 type=i64] [debug line = 1244:44]
  %18 = add i64 %14, %17, !dbg !5067              ; [#uses=1 type=i64] [debug line = 1244:44]
  store i64 %18, i64* %__len, align 8, !dbg !5067 ; [debug line = 1244:44]
  %19 = load i64* %__len, align 8, !dbg !5068     ; [#uses=1 type=i64] [debug line = 1245:2]
  %20 = call i64 @_ZNKSt6vectorIS_ISsSaISsEESaIS1_EE4sizeEv(%"class.std::vector"* %5), !dbg !5069 ; [#uses=1 type=i64] [debug line = 1245:18]
  %21 = icmp ult i64 %19, %20, !dbg !5069         ; [#uses=1 type=i1] [debug line = 1245:18]
  br i1 %21, label %26, label %22, !dbg !5069     ; [debug line = 1245:18]

; <label>:22                                      ; preds = %13
  %23 = load i64* %__len, align 8, !dbg !5069     ; [#uses=1 type=i64] [debug line = 1245:18]
  %24 = call i64 @_ZNKSt6vectorIS_ISsSaISsEESaIS1_EE8max_sizeEv(%"class.std::vector"* %5), !dbg !5070 ; [#uses=1 type=i64] [debug line = 1245:36]
  %25 = icmp ugt i64 %23, %24, !dbg !5070         ; [#uses=1 type=i1] [debug line = 1245:36]
  br i1 %25, label %26, label %28, !dbg !5070     ; [debug line = 1245:36]

; <label>:26                                      ; preds = %22, %13
  %27 = call i64 @_ZNKSt6vectorIS_ISsSaISsEESaIS1_EE8max_sizeEv(%"class.std::vector"* %5), !dbg !5071 ; [#uses=1 type=i64] [debug line = 1245:50]
  br label %30, !dbg !5071                        ; [debug line = 1245:50]

; <label>:28                                      ; preds = %22
  %29 = load i64* %__len, align 8, !dbg !5071     ; [#uses=1 type=i64] [debug line = 1245:50]
  br label %30, !dbg !5071                        ; [debug line = 1245:50]

; <label>:30                                      ; preds = %28, %26
  %31 = phi i64 [ %27, %26 ], [ %29, %28 ], !dbg !5071 ; [#uses=1 type=i64] [debug line = 1245:50]
  ret i64 %31, !dbg !5071                         ; [debug line = 1245:50]
}

; [#uses=1]
define linkonce_odr i64 @_ZN9__gnu_cxxmiIPSt6vectorISsSaISsEES1_IS3_SaIS3_EEEENS_17__normal_iteratorIT_T0_E15difference_typeERKSA_SD_(%"class.__gnu_cxx::__normal_iterator"* %__lhs, %"class.__gnu_cxx::__normal_iterator"* %__rhs) nounwind uwtable inlinehint {
  %1 = alloca %"class.__gnu_cxx::__normal_iterator"*, align 8 ; [#uses=2 type=%"class.__gnu_cxx::__normal_iterator"**]
  %2 = alloca %"class.__gnu_cxx::__normal_iterator"*, align 8 ; [#uses=2 type=%"class.__gnu_cxx::__normal_iterator"**]
  store %"class.__gnu_cxx::__normal_iterator"* %__lhs, %"class.__gnu_cxx::__normal_iterator"** %1, align 8
  call void @llvm.dbg.declare(metadata !{%"class.__gnu_cxx::__normal_iterator"** %1}, metadata !5072), !dbg !5073 ; [debug line = 890:63] [debug variable = __lhs]
  store %"class.__gnu_cxx::__normal_iterator"* %__rhs, %"class.__gnu_cxx::__normal_iterator"** %2, align 8
  call void @llvm.dbg.declare(metadata !{%"class.__gnu_cxx::__normal_iterator"** %2}, metadata !5074), !dbg !5075 ; [debug line = 891:56] [debug variable = __rhs]
  %3 = load %"class.__gnu_cxx::__normal_iterator"** %1, align 8, !dbg !5076 ; [#uses=1 type=%"class.__gnu_cxx::__normal_iterator"*] [debug line = 892:14]
  %4 = call %"class.std::vector.3"** @_ZNK9__gnu_cxx17__normal_iteratorIPSt6vectorISsSaISsEES1_IS3_SaIS3_EEE4baseEv(%"class.__gnu_cxx::__normal_iterator"* %3), !dbg !5076 ; [#uses=1 type=%"class.std::vector.3"**] [debug line = 892:14]
  %5 = load %"class.std::vector.3"** %4, !dbg !5076 ; [#uses=1 type=%"class.std::vector.3"*] [debug line = 892:14]
  %6 = load %"class.__gnu_cxx::__normal_iterator"** %2, align 8, !dbg !5078 ; [#uses=1 type=%"class.__gnu_cxx::__normal_iterator"*] [debug line = 892:29]
  %7 = call %"class.std::vector.3"** @_ZNK9__gnu_cxx17__normal_iteratorIPSt6vectorISsSaISsEES1_IS3_SaIS3_EEE4baseEv(%"class.__gnu_cxx::__normal_iterator"* %6), !dbg !5078 ; [#uses=1 type=%"class.std::vector.3"**] [debug line = 892:29]
  %8 = load %"class.std::vector.3"** %7, !dbg !5078 ; [#uses=1 type=%"class.std::vector.3"*] [debug line = 892:29]
  %9 = ptrtoint %"class.std::vector.3"* %5 to i64, !dbg !5078 ; [#uses=1 type=i64] [debug line = 892:29]
  %10 = ptrtoint %"class.std::vector.3"* %8 to i64, !dbg !5078 ; [#uses=1 type=i64] [debug line = 892:29]
  %11 = sub i64 %9, %10, !dbg !5078               ; [#uses=1 type=i64] [debug line = 892:29]
  %12 = sdiv exact i64 %11, 24, !dbg !5078        ; [#uses=1 type=i64] [debug line = 892:29]
  ret i64 %12, !dbg !5078                         ; [debug line = 892:29]
}

; [#uses=1]
define linkonce_odr void @_ZNSt6vectorIS_ISsSaISsEESaIS1_EE5beginEv(%"class.__gnu_cxx::__normal_iterator"* noalias sret %agg.result, %"class.std::vector"* %this) nounwind uwtable align 2 {
  %1 = alloca %"class.std::vector"*, align 8      ; [#uses=2 type=%"class.std::vector"**]
  store %"class.std::vector"* %this, %"class.std::vector"** %1, align 8
  call void @llvm.dbg.declare(metadata !{%"class.std::vector"** %1}, metadata !5079), !dbg !5080 ; [debug line = 463:7] [debug variable = this]
  %2 = load %"class.std::vector"** %1             ; [#uses=1 type=%"class.std::vector"*]
  %3 = bitcast %"class.std::vector"* %2 to %"struct.std::_Vector_base"*, !dbg !5081 ; [#uses=1 type=%"struct.std::_Vector_base"*] [debug line = 464:9]
  %4 = getelementptr inbounds %"struct.std::_Vector_base"* %3, i32 0, i32 0, !dbg !5081 ; [#uses=1 type=%"struct.std::_Vector_base<std::vector<std::basic_string<char>, std::allocator<std::basic_string<char> > >, std::allocator<std::vector<std::basic_string<char>, std::allocator<std::basic_string<char> > > > >::_Vector_impl"*] [debug line = 464:9]
  %5 = getelementptr inbounds %"struct.std::_Vector_base<std::vector<std::basic_string<char>, std::allocator<std::basic_string<char> > >, std::allocator<std::vector<std::basic_string<char>, std::allocator<std::basic_string<char> > > > >::_Vector_impl"* %4, i32 0, i32 0, !dbg !5081 ; [#uses=1 type=%"class.std::vector.3"**] [debug line = 464:9]
  call void @_ZN9__gnu_cxx17__normal_iteratorIPSt6vectorISsSaISsEES1_IS3_SaIS3_EEEC1ERKS4_(%"class.__gnu_cxx::__normal_iterator"* %agg.result, %"class.std::vector.3"** %5), !dbg !5081 ; [debug line = 464:9]
  ret void, !dbg !5081                            ; [debug line = 464:9]
}

; [#uses=1]
define linkonce_odr %"class.std::vector.3"* @_ZNSt12_Vector_baseISt6vectorISsSaISsEESaIS2_EE11_M_allocateEm(%"struct.std::_Vector_base"* %this, i64 %__n) nounwind uwtable align 2 {
  %1 = alloca %"struct.std::_Vector_base"*, align 8 ; [#uses=2 type=%"struct.std::_Vector_base"**]
  %2 = alloca i64, align 8                        ; [#uses=3 type=i64*]
  store %"struct.std::_Vector_base"* %this, %"struct.std::_Vector_base"** %1, align 8
  call void @llvm.dbg.declare(metadata !{%"struct.std::_Vector_base"** %1}, metadata !5083), !dbg !5085 ; [debug line = 149:7] [debug variable = this]
  store i64 %__n, i64* %2, align 8
  call void @llvm.dbg.declare(metadata !{i64* %2}, metadata !5086), !dbg !5087 ; [debug line = 149:26] [debug variable = __n]
  %3 = load %"struct.std::_Vector_base"** %1      ; [#uses=1 type=%"struct.std::_Vector_base"*]
  %4 = load i64* %2, align 8, !dbg !5088          ; [#uses=1 type=i64] [debug line = 150:9]
  %5 = icmp ne i64 %4, 0, !dbg !5088              ; [#uses=1 type=i1] [debug line = 150:9]
  br i1 %5, label %6, label %11, !dbg !5088       ; [debug line = 150:9]

; <label>:6                                       ; preds = %0
  %7 = getelementptr inbounds %"struct.std::_Vector_base"* %3, i32 0, i32 0, !dbg !5090 ; [#uses=1 type=%"struct.std::_Vector_base<std::vector<std::basic_string<char>, std::allocator<std::basic_string<char> > >, std::allocator<std::vector<std::basic_string<char>, std::allocator<std::basic_string<char> > > > >::_Vector_impl"*] [debug line = 150:27]
  %8 = bitcast %"struct.std::_Vector_base<std::vector<std::basic_string<char>, std::allocator<std::basic_string<char> > >, std::allocator<std::vector<std::basic_string<char>, std::allocator<std::basic_string<char> > > > >::_Vector_impl"* %7 to %"class.std::ios_base::Init"*, !dbg !5090 ; [#uses=1 type=%"class.std::ios_base::Init"*] [debug line = 150:27]
  %9 = load i64* %2, align 8, !dbg !5090          ; [#uses=1 type=i64] [debug line = 150:27]
  %10 = call %"class.std::vector.3"* @_ZN9__gnu_cxx13new_allocatorISt6vectorISsSaISsEEE8allocateEmPKv(%"class.std::ios_base::Init"* %8, i64 %9, i8* null), !dbg !5090 ; [#uses=1 type=%"class.std::vector.3"*] [debug line = 150:27]
  br label %12, !dbg !5090                        ; [debug line = 150:27]

; <label>:11                                      ; preds = %0
  br label %12, !dbg !5090                        ; [debug line = 150:27]

; <label>:12                                      ; preds = %11, %6
  %13 = phi %"class.std::vector.3"* [ %10, %6 ], [ null, %11 ], !dbg !5090 ; [#uses=1 type=%"class.std::vector.3"*] [debug line = 150:27]
  ret %"class.std::vector.3"* %13, !dbg !5090     ; [debug line = 150:27]
}

; [#uses=2]
define linkonce_odr %"class.std::vector.3"* @_ZSt22__uninitialized_move_aIPSt6vectorISsSaISsEES3_SaIS2_EET0_T_S6_S5_RT1_(%"class.std::vector.3"* %__first, %"class.std::vector.3"* %__last, %"class.std::vector.3"* %__result, %"class.std::ios_base::Init"* %__alloc) nounwind uwtable inlinehint {
  %1 = alloca %"class.std::vector.3"*, align 8    ; [#uses=2 type=%"class.std::vector.3"**]
  %2 = alloca %"class.std::vector.3"*, align 8    ; [#uses=2 type=%"class.std::vector.3"**]
  %3 = alloca %"class.std::vector.3"*, align 8    ; [#uses=2 type=%"class.std::vector.3"**]
  %4 = alloca %"class.std::ios_base::Init"*, align 8 ; [#uses=2 type=%"class.std::ios_base::Init"**]
  store %"class.std::vector.3"* %__first, %"class.std::vector.3"** %1, align 8
  call void @llvm.dbg.declare(metadata !{%"class.std::vector.3"** %1}, metadata !5091), !dbg !5092 ; [debug line = 264:43] [debug variable = __first]
  store %"class.std::vector.3"* %__last, %"class.std::vector.3"** %2, align 8
  call void @llvm.dbg.declare(metadata !{%"class.std::vector.3"** %2}, metadata !5093), !dbg !5094 ; [debug line = 264:67] [debug variable = __last]
  store %"class.std::vector.3"* %__result, %"class.std::vector.3"** %3, align 8
  call void @llvm.dbg.declare(metadata !{%"class.std::vector.3"** %3}, metadata !5095), !dbg !5096 ; [debug line = 265:24] [debug variable = __result]
  store %"class.std::ios_base::Init"* %__alloc, %"class.std::ios_base::Init"** %4, align 8
  call void @llvm.dbg.declare(metadata !{%"class.std::ios_base::Init"** %4}, metadata !5097), !dbg !5098 ; [debug line = 265:46] [debug variable = __alloc]
  %5 = load %"class.std::vector.3"** %1, align 8, !dbg !5099 ; [#uses=1 type=%"class.std::vector.3"*] [debug line = 267:14]
  %6 = load %"class.std::vector.3"** %2, align 8, !dbg !5099 ; [#uses=1 type=%"class.std::vector.3"*] [debug line = 267:14]
  %7 = load %"class.std::vector.3"** %3, align 8, !dbg !5099 ; [#uses=1 type=%"class.std::vector.3"*] [debug line = 267:14]
  %8 = load %"class.std::ios_base::Init"** %4, align 8, !dbg !5099 ; [#uses=1 type=%"class.std::ios_base::Init"*] [debug line = 267:14]
  %9 = call %"class.std::vector.3"* @_ZSt22__uninitialized_copy_aIPSt6vectorISsSaISsEES3_S2_ET0_T_S5_S4_RSaIT1_E(%"class.std::vector.3"* %5, %"class.std::vector.3"* %6, %"class.std::vector.3"* %7, %"class.std::ios_base::Init"* %8), !dbg !5099 ; [#uses=1 type=%"class.std::vector.3"*] [debug line = 267:14]
  ret %"class.std::vector.3"* %9, !dbg !5099      ; [debug line = 267:14]
}

; [#uses=4]
define linkonce_odr %"class.std::ios_base::Init"* @_ZNSt12_Vector_baseISt6vectorISsSaISsEESaIS2_EE19_M_get_Tp_allocatorEv(%"struct.std::_Vector_base"* %this) nounwind uwtable align 2 {
  %1 = alloca %"struct.std::_Vector_base"*, align 8 ; [#uses=2 type=%"struct.std::_Vector_base"**]
  store %"struct.std::_Vector_base"* %this, %"struct.std::_Vector_base"** %1, align 8
  call void @llvm.dbg.declare(metadata !{%"struct.std::_Vector_base"** %1}, metadata !5101), !dbg !5102 ; [debug line = 95:7] [debug variable = this]
  %2 = load %"struct.std::_Vector_base"** %1      ; [#uses=1 type=%"struct.std::_Vector_base"*]
  %3 = getelementptr inbounds %"struct.std::_Vector_base"* %2, i32 0, i32 0, !dbg !5103 ; [#uses=1 type=%"struct.std::_Vector_base<std::vector<std::basic_string<char>, std::allocator<std::basic_string<char> > >, std::allocator<std::vector<std::basic_string<char>, std::allocator<std::basic_string<char> > > > >::_Vector_impl"*] [debug line = 96:9]
  %4 = bitcast %"struct.std::_Vector_base<std::vector<std::basic_string<char>, std::allocator<std::basic_string<char> > >, std::allocator<std::vector<std::basic_string<char>, std::allocator<std::basic_string<char> > > > >::_Vector_impl"* %3 to %"class.std::ios_base::Init"*, !dbg !5103 ; [#uses=1 type=%"class.std::ios_base::Init"*] [debug line = 96:9]
  ret %"class.std::ios_base::Init"* %4, !dbg !5103 ; [debug line = 96:9]
}

; [#uses=2]
define linkonce_odr void @_ZSt8_DestroyIPSt6vectorISsSaISsEES2_EvT_S4_RSaIT0_E(%"class.std::vector.3"* %__first, %"class.std::vector.3"* %__last, %"class.std::ios_base::Init"*) nounwind uwtable inlinehint {
  %2 = alloca %"class.std::vector.3"*, align 8    ; [#uses=2 type=%"class.std::vector.3"**]
  %3 = alloca %"class.std::vector.3"*, align 8    ; [#uses=2 type=%"class.std::vector.3"**]
  %4 = alloca %"class.std::ios_base::Init"*, align 8 ; [#uses=1 type=%"class.std::ios_base::Init"**]
  store %"class.std::vector.3"* %__first, %"class.std::vector.3"** %2, align 8
  call void @llvm.dbg.declare(metadata !{%"class.std::vector.3"** %2}, metadata !5105), !dbg !5106 ; [debug line = 150:31] [debug variable = __first]
  store %"class.std::vector.3"* %__last, %"class.std::vector.3"** %3, align 8
  call void @llvm.dbg.declare(metadata !{%"class.std::vector.3"** %3}, metadata !5107), !dbg !5108 ; [debug line = 150:57] [debug variable = __last]
  store %"class.std::ios_base::Init"* %0, %"class.std::ios_base::Init"** %4, align 8
  %5 = load %"class.std::vector.3"** %2, align 8, !dbg !5109 ; [#uses=1 type=%"class.std::vector.3"*] [debug line = 153:7]
  %6 = load %"class.std::vector.3"** %3, align 8, !dbg !5109 ; [#uses=1 type=%"class.std::vector.3"*] [debug line = 153:7]
  call void @_ZSt8_DestroyIPSt6vectorISsSaISsEEEvT_S4_(%"class.std::vector.3"* %5, %"class.std::vector.3"* %6), !dbg !5109 ; [debug line = 153:7]
  ret void, !dbg !5111                            ; [debug line = 154:5]
}

; [#uses=2]
define linkonce_odr void @_ZNSt12_Vector_baseISt6vectorISsSaISsEESaIS2_EE13_M_deallocateEPS2_m(%"struct.std::_Vector_base"* %this, %"class.std::vector.3"* %__p, i64 %__n) nounwind uwtable align 2 {
  %1 = alloca %"struct.std::_Vector_base"*, align 8 ; [#uses=2 type=%"struct.std::_Vector_base"**]
  %2 = alloca %"class.std::vector.3"*, align 8    ; [#uses=3 type=%"class.std::vector.3"**]
  %3 = alloca i64, align 8                        ; [#uses=2 type=i64*]
  store %"struct.std::_Vector_base"* %this, %"struct.std::_Vector_base"** %1, align 8
  call void @llvm.dbg.declare(metadata !{%"struct.std::_Vector_base"** %1}, metadata !5112), !dbg !5113 ; [debug line = 153:7] [debug variable = this]
  store %"class.std::vector.3"* %__p, %"class.std::vector.3"** %2, align 8
  call void @llvm.dbg.declare(metadata !{%"class.std::vector.3"** %2}, metadata !5114), !dbg !5115 ; [debug line = 153:54] [debug variable = __p]
  store i64 %__n, i64* %3, align 8
  call void @llvm.dbg.declare(metadata !{i64* %3}, metadata !5116), !dbg !5117 ; [debug line = 153:66] [debug variable = __n]
  %4 = load %"struct.std::_Vector_base"** %1      ; [#uses=1 type=%"struct.std::_Vector_base"*]
  %5 = load %"class.std::vector.3"** %2, align 8, !dbg !5118 ; [#uses=1 type=%"class.std::vector.3"*] [debug line = 155:2]
  %6 = icmp ne %"class.std::vector.3"* %5, null, !dbg !5118 ; [#uses=1 type=i1] [debug line = 155:2]
  br i1 %6, label %7, label %12, !dbg !5118       ; [debug line = 155:2]

; <label>:7                                       ; preds = %0
  %8 = getelementptr inbounds %"struct.std::_Vector_base"* %4, i32 0, i32 0, !dbg !5120 ; [#uses=1 type=%"struct.std::_Vector_base<std::vector<std::basic_string<char>, std::allocator<std::basic_string<char> > >, std::allocator<std::vector<std::basic_string<char>, std::allocator<std::basic_string<char> > > > >::_Vector_impl"*] [debug line = 156:4]
  %9 = bitcast %"struct.std::_Vector_base<std::vector<std::basic_string<char>, std::allocator<std::basic_string<char> > >, std::allocator<std::vector<std::basic_string<char>, std::allocator<std::basic_string<char> > > > >::_Vector_impl"* %8 to %"class.std::ios_base::Init"*, !dbg !5120 ; [#uses=1 type=%"class.std::ios_base::Init"*] [debug line = 156:4]
  %10 = load %"class.std::vector.3"** %2, align 8, !dbg !5120 ; [#uses=1 type=%"class.std::vector.3"*] [debug line = 156:4]
  %11 = load i64* %3, align 8, !dbg !5120         ; [#uses=1 type=i64] [debug line = 156:4]
  call void @_ZN9__gnu_cxx13new_allocatorISt6vectorISsSaISsEEE10deallocateEPS3_m(%"class.std::ios_base::Init"* %9, %"class.std::vector.3"* %10, i64 %11), !dbg !5120 ; [debug line = 156:4]
  br label %12, !dbg !5120                        ; [debug line = 156:4]

; <label>:12                                      ; preds = %7, %0
  ret void, !dbg !5121                            ; [debug line = 157:7]
}

; [#uses=1]
define linkonce_odr void @_ZN9__gnu_cxx13new_allocatorISt6vectorISsSaISsEEE10deallocateEPS3_m(%"class.std::ios_base::Init"* %this, %"class.std::vector.3"* %__p, i64) nounwind uwtable align 2 {
  %2 = alloca %"class.std::ios_base::Init"*, align 8 ; [#uses=2 type=%"class.std::ios_base::Init"**]
  %3 = alloca %"class.std::vector.3"*, align 8    ; [#uses=2 type=%"class.std::vector.3"**]
  %4 = alloca i64, align 8                        ; [#uses=1 type=i64*]
  store %"class.std::ios_base::Init"* %this, %"class.std::ios_base::Init"** %2, align 8
  call void @llvm.dbg.declare(metadata !{%"class.std::ios_base::Init"** %2}, metadata !5122), !dbg !5123 ; [debug line = 97:7] [debug variable = this]
  store %"class.std::vector.3"* %__p, %"class.std::vector.3"** %3, align 8
  call void @llvm.dbg.declare(metadata !{%"class.std::vector.3"** %3}, metadata !5124), !dbg !5125 ; [debug line = 97:26] [debug variable = __p]
  store i64 %0, i64* %4, align 8
  %5 = load %"class.std::ios_base::Init"** %2     ; [#uses=0 type=%"class.std::ios_base::Init"*]
  %6 = load %"class.std::vector.3"** %3, align 8, !dbg !5126 ; [#uses=1 type=%"class.std::vector.3"*] [debug line = 98:9]
  %7 = bitcast %"class.std::vector.3"* %6 to i8*, !dbg !5126 ; [#uses=1 type=i8*] [debug line = 98:9]
  call void @_ZdlPv(i8* %7) nounwind, !dbg !5126  ; [debug line = 98:9]
  ret void, !dbg !5128                            ; [debug line = 98:33]
}

; [#uses=2]
declare void @_ZdlPv(i8*) nounwind

; [#uses=1]
define linkonce_odr void @_ZSt8_DestroyIPSt6vectorISsSaISsEEEvT_S4_(%"class.std::vector.3"* %__first, %"class.std::vector.3"* %__last) nounwind uwtable inlinehint {
  %1 = alloca %"class.std::vector.3"*, align 8    ; [#uses=2 type=%"class.std::vector.3"**]
  %2 = alloca %"class.std::vector.3"*, align 8    ; [#uses=2 type=%"class.std::vector.3"**]
  store %"class.std::vector.3"* %__first, %"class.std::vector.3"** %1, align 8
  call void @llvm.dbg.declare(metadata !{%"class.std::vector.3"** %1}, metadata !5129), !dbg !5130 ; [debug line = 123:31] [debug variable = __first]
  store %"class.std::vector.3"* %__last, %"class.std::vector.3"** %2, align 8
  call void @llvm.dbg.declare(metadata !{%"class.std::vector.3"** %2}, metadata !5131), !dbg !5132 ; [debug line = 123:57] [debug variable = __last]
  %3 = load %"class.std::vector.3"** %1, align 8, !dbg !5133 ; [#uses=1 type=%"class.std::vector.3"*] [debug line = 127:7]
  %4 = load %"class.std::vector.3"** %2, align 8, !dbg !5133 ; [#uses=1 type=%"class.std::vector.3"*] [debug line = 127:7]
  call void @_ZNSt12_Destroy_auxILb0EE9__destroyIPSt6vectorISsSaISsEEEEvT_S6_(%"class.std::vector.3"* %3, %"class.std::vector.3"* %4), !dbg !5133 ; [debug line = 127:7]
  ret void, !dbg !5135                            ; [debug line = 129:5]
}

; [#uses=1]
define linkonce_odr void @_ZNSt12_Destroy_auxILb0EE9__destroyIPSt6vectorISsSaISsEEEEvT_S6_(%"class.std::vector.3"* %__first, %"class.std::vector.3"* %__last) nounwind uwtable align 2 {
  %1 = alloca %"class.std::vector.3"*, align 8    ; [#uses=5 type=%"class.std::vector.3"**]
  %2 = alloca %"class.std::vector.3"*, align 8    ; [#uses=2 type=%"class.std::vector.3"**]
  store %"class.std::vector.3"* %__first, %"class.std::vector.3"** %1, align 8
  call void @llvm.dbg.declare(metadata !{%"class.std::vector.3"** %1}, metadata !5136), !dbg !5137 ; [debug line = 101:36] [debug variable = __first]
  store %"class.std::vector.3"* %__last, %"class.std::vector.3"** %2, align 8
  call void @llvm.dbg.declare(metadata !{%"class.std::vector.3"** %2}, metadata !5138), !dbg !5139 ; [debug line = 101:62] [debug variable = __last]
  br label %3, !dbg !5140                         ; [debug line = 103:4]

; <label>:3                                       ; preds = %10, %0
  %4 = load %"class.std::vector.3"** %1, align 8, !dbg !5140 ; [#uses=1 type=%"class.std::vector.3"*] [debug line = 103:4]
  %5 = load %"class.std::vector.3"** %2, align 8, !dbg !5140 ; [#uses=1 type=%"class.std::vector.3"*] [debug line = 103:4]
  %6 = icmp ne %"class.std::vector.3"* %4, %5, !dbg !5140 ; [#uses=1 type=i1] [debug line = 103:4]
  br i1 %6, label %7, label %13, !dbg !5140       ; [debug line = 103:4]

; <label>:7                                       ; preds = %3
  %8 = load %"class.std::vector.3"** %1, align 8, !dbg !5143 ; [#uses=1 type=%"class.std::vector.3"*] [debug line = 104:20]
  %9 = call %"class.std::vector.3"* @_ZSt11__addressofISt6vectorISsSaISsEEEPT_RS3_(%"class.std::vector.3"* %8), !dbg !5143 ; [#uses=1 type=%"class.std::vector.3"*] [debug line = 104:20]
  call void @_ZSt8_DestroyISt6vectorISsSaISsEEEvPT_(%"class.std::vector.3"* %9), !dbg !5143 ; [debug line = 104:20]
  br label %10, !dbg !5143                        ; [debug line = 104:20]

; <label>:10                                      ; preds = %7
  %11 = load %"class.std::vector.3"** %1, align 8, !dbg !5144 ; [#uses=1 type=%"class.std::vector.3"*] [debug line = 103:30]
  %12 = getelementptr inbounds %"class.std::vector.3"* %11, i32 1, !dbg !5144 ; [#uses=1 type=%"class.std::vector.3"*] [debug line = 103:30]
  store %"class.std::vector.3"* %12, %"class.std::vector.3"** %1, align 8, !dbg !5144 ; [debug line = 103:30]
  br label %3, !dbg !5144                         ; [debug line = 103:30]

; <label>:13                                      ; preds = %3
  ret void, !dbg !5145                            ; [debug line = 105:2]
}

; [#uses=1]
define linkonce_odr void @_ZSt8_DestroyISt6vectorISsSaISsEEEvPT_(%"class.std::vector.3"* %__pointer) nounwind uwtable inlinehint {
  %1 = alloca %"class.std::vector.3"*, align 8    ; [#uses=2 type=%"class.std::vector.3"**]
  store %"class.std::vector.3"* %__pointer, %"class.std::vector.3"** %1, align 8
  call void @llvm.dbg.declare(metadata !{%"class.std::vector.3"** %1}, metadata !5146), !dbg !5147 ; [debug line = 93:19] [debug variable = __pointer]
  %2 = load %"class.std::vector.3"** %1, align 8, !dbg !5148 ; [#uses=1 type=%"class.std::vector.3"*] [debug line = 94:7]
  call void @_ZNSt6vectorISsSaISsEED1Ev(%"class.std::vector.3"* %2), !dbg !5148 ; [debug line = 94:7]
  ret void, !dbg !5150                            ; [debug line = 94:26]
}

; [#uses=2]
define linkonce_odr %"class.std::vector.3"* @_ZSt11__addressofISt6vectorISsSaISsEEEPT_RS3_(%"class.std::vector.3"* %__r) nounwind uwtable inlinehint {
  %1 = alloca %"class.std::vector.3"*, align 8    ; [#uses=2 type=%"class.std::vector.3"**]
  store %"class.std::vector.3"* %__r, %"class.std::vector.3"** %1, align 8
  call void @llvm.dbg.declare(metadata !{%"class.std::vector.3"** %1}, metadata !5151), !dbg !5152 ; [debug line = 43:22] [debug variable = __r]
  %2 = load %"class.std::vector.3"** %1, align 8, !dbg !5153 ; [#uses=1 type=%"class.std::vector.3"*] [debug line = 45:7]
  %3 = bitcast %"class.std::vector.3"* %2 to i8*, !dbg !5153 ; [#uses=1 type=i8*] [debug line = 45:7]
  %4 = bitcast i8* %3 to %"class.std::vector.3"*, !dbg !5153 ; [#uses=1 type=%"class.std::vector.3"*] [debug line = 45:7]
  ret %"class.std::vector.3"* %4, !dbg !5153      ; [debug line = 45:7]
}

; [#uses=1]
define linkonce_odr %"class.std::vector.3"* @_ZSt22__uninitialized_copy_aIPSt6vectorISsSaISsEES3_S2_ET0_T_S5_S4_RSaIT1_E(%"class.std::vector.3"* %__first, %"class.std::vector.3"* %__last, %"class.std::vector.3"* %__result, %"class.std::ios_base::Init"*) nounwind uwtable inlinehint {
  %2 = alloca %"class.std::vector.3"*, align 8    ; [#uses=2 type=%"class.std::vector.3"**]
  %3 = alloca %"class.std::vector.3"*, align 8    ; [#uses=2 type=%"class.std::vector.3"**]
  %4 = alloca %"class.std::vector.3"*, align 8    ; [#uses=2 type=%"class.std::vector.3"**]
  %5 = alloca %"class.std::ios_base::Init"*, align 8 ; [#uses=1 type=%"class.std::ios_base::Init"**]
  store %"class.std::vector.3"* %__first, %"class.std::vector.3"** %2, align 8
  call void @llvm.dbg.declare(metadata !{%"class.std::vector.3"** %2}, metadata !5155), !dbg !5156 ; [debug line = 257:43] [debug variable = __first]
  store %"class.std::vector.3"* %__last, %"class.std::vector.3"** %3, align 8
  call void @llvm.dbg.declare(metadata !{%"class.std::vector.3"** %3}, metadata !5157), !dbg !5158 ; [debug line = 257:67] [debug variable = __last]
  store %"class.std::vector.3"* %__result, %"class.std::vector.3"** %4, align 8
  call void @llvm.dbg.declare(metadata !{%"class.std::vector.3"** %4}, metadata !5159), !dbg !5160 ; [debug line = 258:24] [debug variable = __result]
  store %"class.std::ios_base::Init"* %0, %"class.std::ios_base::Init"** %5, align 8
  %6 = load %"class.std::vector.3"** %2, align 8, !dbg !5161 ; [#uses=1 type=%"class.std::vector.3"*] [debug line = 259:14]
  %7 = load %"class.std::vector.3"** %3, align 8, !dbg !5161 ; [#uses=1 type=%"class.std::vector.3"*] [debug line = 259:14]
  %8 = load %"class.std::vector.3"** %4, align 8, !dbg !5161 ; [#uses=1 type=%"class.std::vector.3"*] [debug line = 259:14]
  %9 = call %"class.std::vector.3"* @_ZSt18uninitialized_copyIPSt6vectorISsSaISsEES3_ET0_T_S5_S4_(%"class.std::vector.3"* %6, %"class.std::vector.3"* %7, %"class.std::vector.3"* %8), !dbg !5161 ; [#uses=1 type=%"class.std::vector.3"*] [debug line = 259:14]
  ret %"class.std::vector.3"* %9, !dbg !5161      ; [debug line = 259:14]
}

; [#uses=1]
define linkonce_odr %"class.std::vector.3"* @_ZSt18uninitialized_copyIPSt6vectorISsSaISsEES3_ET0_T_S5_S4_(%"class.std::vector.3"* %__first, %"class.std::vector.3"* %__last, %"class.std::vector.3"* %__result) nounwind uwtable inlinehint {
  %1 = alloca %"class.std::vector.3"*, align 8    ; [#uses=2 type=%"class.std::vector.3"**]
  %2 = alloca %"class.std::vector.3"*, align 8    ; [#uses=2 type=%"class.std::vector.3"**]
  %3 = alloca %"class.std::vector.3"*, align 8    ; [#uses=2 type=%"class.std::vector.3"**]
  store %"class.std::vector.3"* %__first, %"class.std::vector.3"** %1, align 8
  call void @llvm.dbg.declare(metadata !{%"class.std::vector.3"** %1}, metadata !5163), !dbg !5164 ; [debug line = 109:39] [debug variable = __first]
  store %"class.std::vector.3"* %__last, %"class.std::vector.3"** %2, align 8
  call void @llvm.dbg.declare(metadata !{%"class.std::vector.3"** %2}, metadata !5165), !dbg !5166 ; [debug line = 109:63] [debug variable = __last]
  store %"class.std::vector.3"* %__result, %"class.std::vector.3"** %3, align 8
  call void @llvm.dbg.declare(metadata !{%"class.std::vector.3"** %3}, metadata !5167), !dbg !5168 ; [debug line = 110:27] [debug variable = __result]
  %4 = load %"class.std::vector.3"** %1, align 8, !dbg !5169 ; [#uses=1 type=%"class.std::vector.3"*] [debug line = 117:14]
  %5 = load %"class.std::vector.3"** %2, align 8, !dbg !5169 ; [#uses=1 type=%"class.std::vector.3"*] [debug line = 117:14]
  %6 = load %"class.std::vector.3"** %3, align 8, !dbg !5169 ; [#uses=1 type=%"class.std::vector.3"*] [debug line = 117:14]
  %7 = call %"class.std::vector.3"* @_ZNSt20__uninitialized_copyILb0EE13__uninit_copyIPSt6vectorISsSaISsEES5_EET0_T_S7_S6_(%"class.std::vector.3"* %4, %"class.std::vector.3"* %5, %"class.std::vector.3"* %6), !dbg !5169 ; [#uses=1 type=%"class.std::vector.3"*] [debug line = 117:14]
  ret %"class.std::vector.3"* %7, !dbg !5169      ; [debug line = 117:14]
}

; [#uses=1]
define linkonce_odr %"class.std::vector.3"* @_ZNSt20__uninitialized_copyILb0EE13__uninit_copyIPSt6vectorISsSaISsEES5_EET0_T_S7_S6_(%"class.std::vector.3"* %__first, %"class.std::vector.3"* %__last, %"class.std::vector.3"* %__result) nounwind uwtable align 2 {
  %1 = alloca %"class.std::vector.3"*, align 8    ; [#uses=5 type=%"class.std::vector.3"**]
  %2 = alloca %"class.std::vector.3"*, align 8    ; [#uses=2 type=%"class.std::vector.3"**]
  %3 = alloca %"class.std::vector.3"*, align 8    ; [#uses=2 type=%"class.std::vector.3"**]
  %__cur = alloca %"class.std::vector.3"*, align 8 ; [#uses=5 type=%"class.std::vector.3"**]
  store %"class.std::vector.3"* %__first, %"class.std::vector.3"** %1, align 8
  call void @llvm.dbg.declare(metadata !{%"class.std::vector.3"** %1}, metadata !5171), !dbg !5172 ; [debug line = 70:38] [debug variable = __first]
  store %"class.std::vector.3"* %__last, %"class.std::vector.3"** %2, align 8
  call void @llvm.dbg.declare(metadata !{%"class.std::vector.3"** %2}, metadata !5173), !dbg !5174 ; [debug line = 70:62] [debug variable = __last]
  store %"class.std::vector.3"* %__result, %"class.std::vector.3"** %3, align 8
  call void @llvm.dbg.declare(metadata !{%"class.std::vector.3"** %3}, metadata !5175), !dbg !5176 ; [debug line = 71:26] [debug variable = __result]
  call void @llvm.dbg.declare(metadata !{%"class.std::vector.3"** %__cur}, metadata !5177), !dbg !5179 ; [debug line = 73:21] [debug variable = __cur]
  %4 = load %"class.std::vector.3"** %3, align 8, !dbg !5180 ; [#uses=1 type=%"class.std::vector.3"*] [debug line = 73:37]
  store %"class.std::vector.3"* %4, %"class.std::vector.3"** %__cur, align 8, !dbg !5180 ; [debug line = 73:37]
  br label %5, !dbg !5181                         ; [debug line = 76:8]

; <label>:5                                       ; preds = %13, %0
  %6 = load %"class.std::vector.3"** %1, align 8, !dbg !5181 ; [#uses=1 type=%"class.std::vector.3"*] [debug line = 76:8]
  %7 = load %"class.std::vector.3"** %2, align 8, !dbg !5181 ; [#uses=1 type=%"class.std::vector.3"*] [debug line = 76:8]
  %8 = icmp ne %"class.std::vector.3"* %6, %7, !dbg !5181 ; [#uses=1 type=i1] [debug line = 76:8]
  br i1 %8, label %9, label %18, !dbg !5181       ; [debug line = 76:8]

; <label>:9                                       ; preds = %5
  %10 = load %"class.std::vector.3"** %__cur, align 8, !dbg !5184 ; [#uses=1 type=%"class.std::vector.3"*] [debug line = 77:19]
  %11 = call %"class.std::vector.3"* @_ZSt11__addressofISt6vectorISsSaISsEEEPT_RS3_(%"class.std::vector.3"* %10), !dbg !5184 ; [#uses=1 type=%"class.std::vector.3"*] [debug line = 77:19]
  %12 = load %"class.std::vector.3"** %1, align 8, !dbg !5184 ; [#uses=1 type=%"class.std::vector.3"*] [debug line = 77:19]
  call void @_ZSt10_ConstructISt6vectorISsSaISsEES2_EvPT_RKT0_(%"class.std::vector.3"* %11, %"class.std::vector.3"* %12), !dbg !5184 ; [debug line = 77:19]
  br label %13, !dbg !5184                        ; [debug line = 77:19]

; <label>:13                                      ; preds = %9
  %14 = load %"class.std::vector.3"** %1, align 8, !dbg !5185 ; [#uses=1 type=%"class.std::vector.3"*] [debug line = 76:34]
  %15 = getelementptr inbounds %"class.std::vector.3"* %14, i32 1, !dbg !5185 ; [#uses=1 type=%"class.std::vector.3"*] [debug line = 76:34]
  store %"class.std::vector.3"* %15, %"class.std::vector.3"** %1, align 8, !dbg !5185 ; [debug line = 76:34]
  %16 = load %"class.std::vector.3"** %__cur, align 8, !dbg !5185 ; [#uses=1 type=%"class.std::vector.3"*] [debug line = 76:34]
  %17 = getelementptr inbounds %"class.std::vector.3"* %16, i32 1, !dbg !5185 ; [#uses=1 type=%"class.std::vector.3"*] [debug line = 76:34]
  store %"class.std::vector.3"* %17, %"class.std::vector.3"** %__cur, align 8, !dbg !5185 ; [debug line = 76:34]
  br label %5, !dbg !5185                         ; [debug line = 76:34]

; <label>:18                                      ; preds = %5
  %19 = load %"class.std::vector.3"** %__cur, align 8, !dbg !5186 ; [#uses=1 type=%"class.std::vector.3"*] [debug line = 78:8]
  ret %"class.std::vector.3"* %19, !dbg !5186     ; [debug line = 78:8]
}

; [#uses=1]
define linkonce_odr void @_ZSt10_ConstructISt6vectorISsSaISsEES2_EvPT_RKT0_(%"class.std::vector.3"* %__p, %"class.std::vector.3"* %__value) nounwind uwtable inlinehint {
  %1 = alloca %"class.std::vector.3"*, align 8    ; [#uses=2 type=%"class.std::vector.3"**]
  %2 = alloca %"class.std::vector.3"*, align 8    ; [#uses=2 type=%"class.std::vector.3"**]
  store %"class.std::vector.3"* %__p, %"class.std::vector.3"** %1, align 8
  call void @llvm.dbg.declare(metadata !{%"class.std::vector.3"** %1}, metadata !5187), !dbg !5188 ; [debug line = 80:21] [debug variable = __p]
  store %"class.std::vector.3"* %__value, %"class.std::vector.3"** %2, align 8
  call void @llvm.dbg.declare(metadata !{%"class.std::vector.3"** %2}, metadata !5189), !dbg !5190 ; [debug line = 80:37] [debug variable = __value]
  %3 = load %"class.std::vector.3"** %1, align 8, !dbg !5191 ; [#uses=1 type=%"class.std::vector.3"*] [debug line = 84:7]
  %4 = bitcast %"class.std::vector.3"* %3 to i8*, !dbg !5191 ; [#uses=2 type=i8*] [debug line = 84:7]
  %5 = icmp eq i8* %4, null, !dbg !5191           ; [#uses=1 type=i1] [debug line = 84:7]
  br i1 %5, label %9, label %6, !dbg !5191        ; [debug line = 84:7]

; <label>:6                                       ; preds = %0
  %7 = bitcast i8* %4 to %"class.std::vector.3"*, !dbg !5191 ; [#uses=2 type=%"class.std::vector.3"*] [debug line = 84:7]
  %8 = load %"class.std::vector.3"** %2, align 8, !dbg !5191 ; [#uses=1 type=%"class.std::vector.3"*] [debug line = 84:7]
  call void @_ZNSt6vectorISsSaISsEEC1ERKS1_(%"class.std::vector.3"* %7, %"class.std::vector.3"* %8), !dbg !5191 ; [debug line = 84:7]
  br label %9, !dbg !5191                         ; [debug line = 84:7]

; <label>:9                                       ; preds = %6, %0
  %10 = phi %"class.std::vector.3"* [ %7, %6 ], [ null, %0 ], !dbg !5191 ; [#uses=0 type=%"class.std::vector.3"*] [debug line = 84:7]
  ret void, !dbg !5193                            ; [debug line = 85:5]
}

; [#uses=1]
define linkonce_odr %"class.std::vector.3"* @_ZN9__gnu_cxx13new_allocatorISt6vectorISsSaISsEEE8allocateEmPKv(%"class.std::ios_base::Init"* %this, i64 %__n, i8*) nounwind uwtable align 2 {
  %2 = alloca %"class.std::ios_base::Init"*, align 8 ; [#uses=2 type=%"class.std::ios_base::Init"**]
  %3 = alloca i64, align 8                        ; [#uses=3 type=i64*]
  %4 = alloca i8*, align 8                        ; [#uses=1 type=i8**]
  store %"class.std::ios_base::Init"* %this, %"class.std::ios_base::Init"** %2, align 8
  call void @llvm.dbg.declare(metadata !{%"class.std::ios_base::Init"** %2}, metadata !5194), !dbg !5195 ; [debug line = 87:7] [debug variable = this]
  store i64 %__n, i64* %3, align 8
  call void @llvm.dbg.declare(metadata !{i64* %3}, metadata !5196), !dbg !5197 ; [debug line = 87:26] [debug variable = __n]
  store i8* %0, i8** %4, align 8
  %5 = load %"class.std::ios_base::Init"** %2     ; [#uses=1 type=%"class.std::ios_base::Init"*]
  %6 = load i64* %3, align 8, !dbg !5198          ; [#uses=1 type=i64] [debug line = 89:2]
  %7 = call i64 @_ZNK9__gnu_cxx13new_allocatorISt6vectorISsSaISsEEE8max_sizeEv(%"class.std::ios_base::Init"* %5) nounwind, !dbg !5200 ; [#uses=1 type=i64] [debug line = 89:12]
  %8 = icmp ugt i64 %6, %7, !dbg !5200            ; [#uses=1 type=i1] [debug line = 89:12]
  br i1 %8, label %9, label %10, !dbg !5200       ; [debug line = 89:12]

; <label>:9                                       ; preds = %1
  call void @_ZSt17__throw_bad_allocv() noreturn, !dbg !5201 ; [debug line = 90:4]
  unreachable, !dbg !5201                         ; [debug line = 90:4]

; <label>:10                                      ; preds = %1
  %11 = load i64* %3, align 8, !dbg !5202         ; [#uses=1 type=i64] [debug line = 92:27]
  %12 = mul i64 %11, 24, !dbg !5202               ; [#uses=1 type=i64] [debug line = 92:27]
  %13 = call noalias i8* @_Znwm(i64 %12), !dbg !5202 ; [#uses=1 type=i8*] [debug line = 92:27]
  %14 = bitcast i8* %13 to %"class.std::vector.3"*, !dbg !5202 ; [#uses=1 type=%"class.std::vector.3"*] [debug line = 92:27]
  ret %"class.std::vector.3"* %14, !dbg !5202     ; [debug line = 92:27]
}

; [#uses=2]
define linkonce_odr i64 @_ZNK9__gnu_cxx13new_allocatorISt6vectorISsSaISsEEE8max_sizeEv(%"class.std::ios_base::Init"* %this) nounwind uwtable align 2 {
  %1 = alloca %"class.std::ios_base::Init"*, align 8 ; [#uses=2 type=%"class.std::ios_base::Init"**]
  store %"class.std::ios_base::Init"* %this, %"class.std::ios_base::Init"** %1, align 8
  call void @llvm.dbg.declare(metadata !{%"class.std::ios_base::Init"** %1}, metadata !5203), !dbg !5205 ; [debug line = 101:7] [debug variable = this]
  %2 = load %"class.std::ios_base::Init"** %1     ; [#uses=0 type=%"class.std::ios_base::Init"*]
  ret i64 768614336404564650, !dbg !5206          ; [debug line = 102:9]
}

; [#uses=2]
declare void @_ZSt17__throw_bad_allocv() noreturn

; [#uses=2]
declare noalias i8* @_Znwm(i64)

; [#uses=3]
define linkonce_odr i64 @_ZNKSt6vectorIS_ISsSaISsEESaIS1_EE8max_sizeEv(%"class.std::vector"* %this) nounwind uwtable align 2 {
  %1 = alloca %"class.std::vector"*, align 8      ; [#uses=2 type=%"class.std::vector"**]
  store %"class.std::vector"* %this, %"class.std::vector"** %1, align 8
  call void @llvm.dbg.declare(metadata !{%"class.std::vector"** %1}, metadata !5208), !dbg !5209 ; [debug line = 575:7] [debug variable = this]
  %2 = load %"class.std::vector"** %1             ; [#uses=1 type=%"class.std::vector"*]
  %3 = bitcast %"class.std::vector"* %2 to %"struct.std::_Vector_base"*, !dbg !5210 ; [#uses=1 type=%"struct.std::_Vector_base"*] [debug line = 576:16]
  %4 = call %"class.std::ios_base::Init"* @_ZNKSt12_Vector_baseISt6vectorISsSaISsEESaIS2_EE19_M_get_Tp_allocatorEv(%"struct.std::_Vector_base"* %3), !dbg !5210 ; [#uses=1 type=%"class.std::ios_base::Init"*] [debug line = 576:16]
  %5 = bitcast %"class.std::ios_base::Init"* %4 to %"class.std::ios_base::Init"*, !dbg !5210 ; [#uses=1 type=%"class.std::ios_base::Init"*] [debug line = 576:16]
  %6 = call i64 @_ZNK9__gnu_cxx13new_allocatorISt6vectorISsSaISsEEE8max_sizeEv(%"class.std::ios_base::Init"* %5) nounwind, !dbg !5210 ; [#uses=1 type=i64] [debug line = 576:16]
  ret i64 %6, !dbg !5210                          ; [debug line = 576:16]
}

; [#uses=2]
declare void @_ZSt20__throw_length_errorPKc(i8*) noreturn

; [#uses=2]
define linkonce_odr i64* @_ZSt3maxImERKT_S2_S2_(i64* %__a, i64* %__b) nounwind uwtable inlinehint {
  %1 = alloca i64*, align 8                       ; [#uses=3 type=i64**]
  %2 = alloca i64*, align 8                       ; [#uses=3 type=i64**]
  %3 = alloca i64*, align 8                       ; [#uses=3 type=i64**]
  store i64* %__a, i64** %2, align 8
  call void @llvm.dbg.declare(metadata !{i64** %2}, metadata !5212), !dbg !5213 ; [debug line = 210:20] [debug variable = __a]
  store i64* %__b, i64** %3, align 8
  call void @llvm.dbg.declare(metadata !{i64** %3}, metadata !5214), !dbg !5215 ; [debug line = 210:36] [debug variable = __b]
  %4 = load i64** %2, align 8, !dbg !5216         ; [#uses=1 type=i64*] [debug line = 215:7]
  %5 = load i64* %4, align 8, !dbg !5216          ; [#uses=1 type=i64] [debug line = 215:7]
  %6 = load i64** %3, align 8, !dbg !5216         ; [#uses=1 type=i64*] [debug line = 215:7]
  %7 = load i64* %6, align 8, !dbg !5216          ; [#uses=1 type=i64] [debug line = 215:7]
  %8 = icmp ult i64 %5, %7, !dbg !5216            ; [#uses=1 type=i1] [debug line = 215:7]
  br i1 %8, label %9, label %11, !dbg !5216       ; [debug line = 215:7]

; <label>:9                                       ; preds = %0
  %10 = load i64** %3, align 8, !dbg !5218        ; [#uses=1 type=i64*] [debug line = 216:2]
  store i64* %10, i64** %1, !dbg !5218            ; [debug line = 216:2]
  br label %13, !dbg !5218                        ; [debug line = 216:2]

; <label>:11                                      ; preds = %0
  %12 = load i64** %2, align 8, !dbg !5219        ; [#uses=1 type=i64*] [debug line = 217:7]
  store i64* %12, i64** %1, !dbg !5219            ; [debug line = 217:7]
  br label %13, !dbg !5219                        ; [debug line = 217:7]

; <label>:13                                      ; preds = %11, %9
  %14 = load i64** %1, !dbg !5220                 ; [#uses=1 type=i64*] [debug line = 218:5]
  ret i64* %14, !dbg !5220                        ; [debug line = 218:5]
}

; [#uses=1]
define linkonce_odr %"class.std::ios_base::Init"* @_ZNKSt12_Vector_baseISt6vectorISsSaISsEESaIS2_EE19_M_get_Tp_allocatorEv(%"struct.std::_Vector_base"* %this) nounwind uwtable align 2 {
  %1 = alloca %"struct.std::_Vector_base"*, align 8 ; [#uses=2 type=%"struct.std::_Vector_base"**]
  store %"struct.std::_Vector_base"* %this, %"struct.std::_Vector_base"** %1, align 8
  call void @llvm.dbg.declare(metadata !{%"struct.std::_Vector_base"** %1}, metadata !5221), !dbg !5223 ; [debug line = 99:7] [debug variable = this]
  %2 = load %"struct.std::_Vector_base"** %1      ; [#uses=1 type=%"struct.std::_Vector_base"*]
  %3 = getelementptr inbounds %"struct.std::_Vector_base"* %2, i32 0, i32 0, !dbg !5224 ; [#uses=1 type=%"struct.std::_Vector_base<std::vector<std::basic_string<char>, std::allocator<std::basic_string<char> > >, std::allocator<std::vector<std::basic_string<char>, std::allocator<std::basic_string<char> > > > >::_Vector_impl"*] [debug line = 100:9]
  %4 = bitcast %"struct.std::_Vector_base<std::vector<std::basic_string<char>, std::allocator<std::basic_string<char> > >, std::allocator<std::vector<std::basic_string<char>, std::allocator<std::basic_string<char> > > > >::_Vector_impl"* %3 to %"class.std::ios_base::Init"*, !dbg !5224 ; [#uses=1 type=%"class.std::ios_base::Init"*] [debug line = 100:9]
  ret %"class.std::ios_base::Init"* %4, !dbg !5224 ; [debug line = 100:9]
}

; [#uses=1]
define linkonce_odr i64 @_ZNKSt6vectorISsSaISsEE8capacityEv(%"class.std::vector.3"* %this) nounwind uwtable align 2 {
  %1 = alloca %"class.std::vector.3"*, align 8    ; [#uses=2 type=%"class.std::vector.3"**]
  store %"class.std::vector.3"* %this, %"class.std::vector.3"** %1, align 8
  call void @llvm.dbg.declare(metadata !{%"class.std::vector.3"** %1}, metadata !5226), !dbg !5227 ; [debug line = 650:7] [debug variable = this]
  %2 = load %"class.std::vector.3"** %1           ; [#uses=2 type=%"class.std::vector.3"*]
  %3 = bitcast %"class.std::vector.3"* %2 to %"struct.std::_Vector_base.4"*, !dbg !5228 ; [#uses=1 type=%"struct.std::_Vector_base.4"*] [debug line = 651:9]
  %4 = getelementptr inbounds %"struct.std::_Vector_base.4"* %3, i32 0, i32 0, !dbg !5228 ; [#uses=1 type=%"struct.std::_Vector_base<std::basic_string<char>, std::allocator<std::basic_string<char> > >::_Vector_impl"*] [debug line = 651:9]
  %5 = getelementptr inbounds %"struct.std::_Vector_base<std::basic_string<char>, std::allocator<std::basic_string<char> > >::_Vector_impl"* %4, i32 0, i32 2, !dbg !5228 ; [#uses=1 type=%"class.std::basic_string"**] [debug line = 651:9]
  %6 = load %"class.std::basic_string"** %5, align 8, !dbg !5228 ; [#uses=1 type=%"class.std::basic_string"*] [debug line = 651:9]
  %7 = bitcast %"class.std::vector.3"* %2 to %"struct.std::_Vector_base.4"*, !dbg !5228 ; [#uses=1 type=%"struct.std::_Vector_base.4"*] [debug line = 651:9]
  %8 = getelementptr inbounds %"struct.std::_Vector_base.4"* %7, i32 0, i32 0, !dbg !5228 ; [#uses=1 type=%"struct.std::_Vector_base<std::basic_string<char>, std::allocator<std::basic_string<char> > >::_Vector_impl"*] [debug line = 651:9]
  %9 = getelementptr inbounds %"struct.std::_Vector_base<std::basic_string<char>, std::allocator<std::basic_string<char> > >::_Vector_impl"* %8, i32 0, i32 0, !dbg !5228 ; [#uses=1 type=%"class.std::basic_string"**] [debug line = 651:9]
  %10 = load %"class.std::basic_string"** %9, align 8, !dbg !5228 ; [#uses=1 type=%"class.std::basic_string"*] [debug line = 651:9]
  %11 = ptrtoint %"class.std::basic_string"* %6 to i64, !dbg !5228 ; [#uses=1 type=i64] [debug line = 651:9]
  %12 = ptrtoint %"class.std::basic_string"* %10 to i64, !dbg !5228 ; [#uses=1 type=i64] [debug line = 651:9]
  %13 = sub i64 %11, %12, !dbg !5228              ; [#uses=1 type=i64] [debug line = 651:9]
  %14 = sdiv exact i64 %13, 8, !dbg !5228         ; [#uses=1 type=i64] [debug line = 651:9]
  ret i64 %14, !dbg !5228                         ; [debug line = 651:9]
}

; [#uses=1]
define linkonce_odr %"class.std::basic_string"* @_ZNSt6vectorISsSaISsEE20_M_allocate_and_copyIN9__gnu_cxx17__normal_iteratorIPKSsS1_EEEEPSsmT_S9_(%"class.std::vector.3"* %this, i64 %__n, %"class.__gnu_cxx::__normal_iterator.18"* byval align 8 %__first, %"class.__gnu_cxx::__normal_iterator.18"* byval align 8 %__last) nounwind uwtable align 2 {
  %1 = alloca %"class.std::vector.3"*, align 8    ; [#uses=2 type=%"class.std::vector.3"**]
  %2 = alloca i64, align 8                        ; [#uses=2 type=i64*]
  %__result = alloca %"class.std::basic_string"*, align 8 ; [#uses=3 type=%"class.std::basic_string"**]
  %3 = alloca %"class.__gnu_cxx::__normal_iterator.18", align 8 ; [#uses=3 type=%"class.__gnu_cxx::__normal_iterator.18"*]
  %4 = alloca %"class.__gnu_cxx::__normal_iterator.18", align 8 ; [#uses=3 type=%"class.__gnu_cxx::__normal_iterator.18"*]
  store %"class.std::vector.3"* %this, %"class.std::vector.3"** %1, align 8
  call void @llvm.dbg.declare(metadata !{%"class.std::vector.3"** %1}, metadata !5230), !dbg !5231 ; [debug line = 1049:9] [debug variable = this]
  store i64 %__n, i64* %2, align 8
  call void @llvm.dbg.declare(metadata !{i64* %2}, metadata !5232), !dbg !5233 ; [debug line = 1049:40] [debug variable = __n]
  call void @llvm.dbg.declare(metadata !{%"class.__gnu_cxx::__normal_iterator.18"* %__first}, metadata !5234), !dbg !5235 ; [debug line = 1050:26] [debug variable = __first]
  call void @llvm.dbg.declare(metadata !{%"class.__gnu_cxx::__normal_iterator.18"* %__last}, metadata !5236), !dbg !5237 ; [debug line = 1050:52] [debug variable = __last]
  %5 = load %"class.std::vector.3"** %1           ; [#uses=2 type=%"class.std::vector.3"*]
  call void @llvm.dbg.declare(metadata !{%"class.std::basic_string"** %__result}, metadata !5238), !dbg !5240 ; [debug line = 1052:12] [debug variable = __result]
  %6 = bitcast %"class.std::vector.3"* %5 to %"struct.std::_Vector_base.4"*, !dbg !5241 ; [#uses=1 type=%"struct.std::_Vector_base.4"*] [debug line = 1052:23]
  %7 = load i64* %2, align 8, !dbg !5241          ; [#uses=1 type=i64] [debug line = 1052:23]
  %8 = call %"class.std::basic_string"* @_ZNSt12_Vector_baseISsSaISsEE11_M_allocateEm(%"struct.std::_Vector_base.4"* %6, i64 %7), !dbg !5241 ; [#uses=1 type=%"class.std::basic_string"*] [debug line = 1052:23]
  store %"class.std::basic_string"* %8, %"class.std::basic_string"** %__result, align 8, !dbg !5241 ; [debug line = 1052:23]
  %9 = bitcast %"class.__gnu_cxx::__normal_iterator.18"* %3 to i8*, !dbg !5242 ; [#uses=0 type=i8*] [debug line = 1055:8]
  %10 = bitcast %"class.__gnu_cxx::__normal_iterator.18"* %__first to i8*, !dbg !5242 ; [#uses=0 type=i8*] [debug line = 1055:8]
  %11 = getelementptr inbounds %"class.__gnu_cxx::__normal_iterator.18"* %3, i32 0, i32 0, !dbg !5242 ; [#uses=1 type=%"class.std::basic_string"**] [debug line = 1055:8]
  %12 = getelementptr inbounds %"class.__gnu_cxx::__normal_iterator.18"* %__first, i32 0, i32 0, !dbg !5242 ; [#uses=1 type=%"class.std::basic_string"**] [debug line = 1055:8]
  %13 = load %"class.std::basic_string"** %12, !dbg !5242 ; [#uses=1 type=%"class.std::basic_string"*] [debug line = 1055:8]
  store %"class.std::basic_string"* %13, %"class.std::basic_string"** %11, !dbg !5242 ; [debug line = 1055:8]
  %14 = bitcast %"class.__gnu_cxx::__normal_iterator.18"* %4 to i8*, !dbg !5242 ; [#uses=0 type=i8*] [debug line = 1055:8]
  %15 = bitcast %"class.__gnu_cxx::__normal_iterator.18"* %__last to i8*, !dbg !5242 ; [#uses=0 type=i8*] [debug line = 1055:8]
  %16 = getelementptr inbounds %"class.__gnu_cxx::__normal_iterator.18"* %4, i32 0, i32 0, !dbg !5242 ; [#uses=1 type=%"class.std::basic_string"**] [debug line = 1055:8]
  %17 = getelementptr inbounds %"class.__gnu_cxx::__normal_iterator.18"* %__last, i32 0, i32 0, !dbg !5242 ; [#uses=1 type=%"class.std::basic_string"**] [debug line = 1055:8]
  %18 = load %"class.std::basic_string"** %17, !dbg !5242 ; [#uses=1 type=%"class.std::basic_string"*] [debug line = 1055:8]
  store %"class.std::basic_string"* %18, %"class.std::basic_string"** %16, !dbg !5242 ; [debug line = 1055:8]
  %19 = load %"class.std::basic_string"** %__result, align 8, !dbg !5242 ; [#uses=1 type=%"class.std::basic_string"*] [debug line = 1055:8]
  %20 = bitcast %"class.std::vector.3"* %5 to %"struct.std::_Vector_base.4"*, !dbg !5244 ; [#uses=1 type=%"struct.std::_Vector_base.4"*] [debug line = 1056:8]
  %21 = call %"class.std::ios_base::Init"* @_ZNSt12_Vector_baseISsSaISsEE19_M_get_Tp_allocatorEv(%"struct.std::_Vector_base.4"* %20), !dbg !5244 ; [#uses=1 type=%"class.std::ios_base::Init"*] [debug line = 1056:8]
  %22 = call %"class.std::basic_string"* @_ZSt22__uninitialized_copy_aIN9__gnu_cxx17__normal_iteratorIPKSsSt6vectorISsSaISsEEEEPSsSsET0_T_SA_S9_RSaIT1_E(%"class.__gnu_cxx::__normal_iterator.18"* byval align 8 %3, %"class.__gnu_cxx::__normal_iterator.18"* byval align 8 %4, %"class.std::basic_string"* %19, %"class.std::ios_base::Init"* %21), !dbg !5244 ; [#uses=0 type=%"class.std::basic_string"*] [debug line = 1056:8]
  %23 = load %"class.std::basic_string"** %__result, align 8, !dbg !5245 ; [#uses=1 type=%"class.std::basic_string"*] [debug line = 1057:8]
  ret %"class.std::basic_string"* %23, !dbg !5245 ; [debug line = 1057:8]
}

; [#uses=3]
define linkonce_odr void @_ZNKSt6vectorISsSaISsEE5beginEv(%"class.__gnu_cxx::__normal_iterator.18"* noalias sret %agg.result, %"class.std::vector.3"* %this) nounwind uwtable align 2 {
  %1 = alloca %"class.std::vector.3"*, align 8    ; [#uses=2 type=%"class.std::vector.3"**]
  %2 = alloca %"class.std::basic_string"*, align 8 ; [#uses=2 type=%"class.std::basic_string"**]
  store %"class.std::vector.3"* %this, %"class.std::vector.3"** %1, align 8
  call void @llvm.dbg.declare(metadata !{%"class.std::vector.3"** %1}, metadata !5246), !dbg !5247 ; [debug line = 472:7] [debug variable = this]
  %3 = load %"class.std::vector.3"** %1           ; [#uses=1 type=%"class.std::vector.3"*]
  %4 = bitcast %"class.std::vector.3"* %3 to %"struct.std::_Vector_base.4"*, !dbg !5248 ; [#uses=1 type=%"struct.std::_Vector_base.4"*] [debug line = 473:9]
  %5 = getelementptr inbounds %"struct.std::_Vector_base.4"* %4, i32 0, i32 0, !dbg !5248 ; [#uses=1 type=%"struct.std::_Vector_base<std::basic_string<char>, std::allocator<std::basic_string<char> > >::_Vector_impl"*] [debug line = 473:9]
  %6 = getelementptr inbounds %"struct.std::_Vector_base<std::basic_string<char>, std::allocator<std::basic_string<char> > >::_Vector_impl"* %5, i32 0, i32 0, !dbg !5248 ; [#uses=1 type=%"class.std::basic_string"**] [debug line = 473:9]
  %7 = load %"class.std::basic_string"** %6, align 8, !dbg !5248 ; [#uses=1 type=%"class.std::basic_string"*] [debug line = 473:9]
  store %"class.std::basic_string"* %7, %"class.std::basic_string"** %2, align 8, !dbg !5248 ; [debug line = 473:9]
  call void @_ZN9__gnu_cxx17__normal_iteratorIPKSsSt6vectorISsSaISsEEEC1ERKS2_(%"class.__gnu_cxx::__normal_iterator.18"* %agg.result, %"class.std::basic_string"** %2), !dbg !5248 ; [debug line = 473:9]
  ret void, !dbg !5248                            ; [debug line = 473:9]
}

; [#uses=3]
define linkonce_odr void @_ZNKSt6vectorISsSaISsEE3endEv(%"class.__gnu_cxx::__normal_iterator.18"* noalias sret %agg.result, %"class.std::vector.3"* %this) nounwind uwtable align 2 {
  %1 = alloca %"class.std::vector.3"*, align 8    ; [#uses=2 type=%"class.std::vector.3"**]
  %2 = alloca %"class.std::basic_string"*, align 8 ; [#uses=2 type=%"class.std::basic_string"**]
  store %"class.std::vector.3"* %this, %"class.std::vector.3"** %1, align 8
  call void @llvm.dbg.declare(metadata !{%"class.std::vector.3"** %1}, metadata !5250), !dbg !5251 ; [debug line = 490:7] [debug variable = this]
  %3 = load %"class.std::vector.3"** %1           ; [#uses=1 type=%"class.std::vector.3"*]
  %4 = bitcast %"class.std::vector.3"* %3 to %"struct.std::_Vector_base.4"*, !dbg !5252 ; [#uses=1 type=%"struct.std::_Vector_base.4"*] [debug line = 491:9]
  %5 = getelementptr inbounds %"struct.std::_Vector_base.4"* %4, i32 0, i32 0, !dbg !5252 ; [#uses=1 type=%"struct.std::_Vector_base<std::basic_string<char>, std::allocator<std::basic_string<char> > >::_Vector_impl"*] [debug line = 491:9]
  %6 = getelementptr inbounds %"struct.std::_Vector_base<std::basic_string<char>, std::allocator<std::basic_string<char> > >::_Vector_impl"* %5, i32 0, i32 1, !dbg !5252 ; [#uses=1 type=%"class.std::basic_string"**] [debug line = 491:9]
  %7 = load %"class.std::basic_string"** %6, align 8, !dbg !5252 ; [#uses=1 type=%"class.std::basic_string"*] [debug line = 491:9]
  store %"class.std::basic_string"* %7, %"class.std::basic_string"** %2, align 8, !dbg !5252 ; [debug line = 491:9]
  call void @_ZN9__gnu_cxx17__normal_iteratorIPKSsSt6vectorISsSaISsEEEC1ERKS2_(%"class.__gnu_cxx::__normal_iterator.18"* %agg.result, %"class.std::basic_string"** %2), !dbg !5252 ; [debug line = 491:9]
  ret void, !dbg !5252                            ; [debug line = 491:9]
}

; [#uses=4]
define linkonce_odr void @_ZSt8_DestroyIPSsSsEvT_S1_RSaIT0_E(%"class.std::basic_string"* %__first, %"class.std::basic_string"* %__last, %"class.std::ios_base::Init"*) nounwind uwtable inlinehint {
  %2 = alloca %"class.std::basic_string"*, align 8 ; [#uses=2 type=%"class.std::basic_string"**]
  %3 = alloca %"class.std::basic_string"*, align 8 ; [#uses=2 type=%"class.std::basic_string"**]
  %4 = alloca %"class.std::ios_base::Init"*, align 8 ; [#uses=1 type=%"class.std::ios_base::Init"**]
  store %"class.std::basic_string"* %__first, %"class.std::basic_string"** %2, align 8
  call void @llvm.dbg.declare(metadata !{%"class.std::basic_string"** %2}, metadata !5254), !dbg !5255 ; [debug line = 150:31] [debug variable = __first]
  store %"class.std::basic_string"* %__last, %"class.std::basic_string"** %3, align 8
  call void @llvm.dbg.declare(metadata !{%"class.std::basic_string"** %3}, metadata !5256), !dbg !5257 ; [debug line = 150:57] [debug variable = __last]
  store %"class.std::ios_base::Init"* %0, %"class.std::ios_base::Init"** %4, align 8
  %5 = load %"class.std::basic_string"** %2, align 8, !dbg !5258 ; [#uses=1 type=%"class.std::basic_string"*] [debug line = 153:7]
  %6 = load %"class.std::basic_string"** %3, align 8, !dbg !5258 ; [#uses=1 type=%"class.std::basic_string"*] [debug line = 153:7]
  call void @_ZSt8_DestroyIPSsEvT_S1_(%"class.std::basic_string"* %5, %"class.std::basic_string"* %6), !dbg !5258 ; [debug line = 153:7]
  ret void, !dbg !5260                            ; [debug line = 154:5]
}

; [#uses=10]
define linkonce_odr %"class.std::ios_base::Init"* @_ZNSt12_Vector_baseISsSaISsEE19_M_get_Tp_allocatorEv(%"struct.std::_Vector_base.4"* %this) nounwind uwtable align 2 {
  %1 = alloca %"struct.std::_Vector_base.4"*, align 8 ; [#uses=2 type=%"struct.std::_Vector_base.4"**]
  store %"struct.std::_Vector_base.4"* %this, %"struct.std::_Vector_base.4"** %1, align 8
  call void @llvm.dbg.declare(metadata !{%"struct.std::_Vector_base.4"** %1}, metadata !5261), !dbg !5263 ; [debug line = 95:7] [debug variable = this]
  %2 = load %"struct.std::_Vector_base.4"** %1    ; [#uses=1 type=%"struct.std::_Vector_base.4"*]
  %3 = getelementptr inbounds %"struct.std::_Vector_base.4"* %2, i32 0, i32 0, !dbg !5264 ; [#uses=1 type=%"struct.std::_Vector_base<std::basic_string<char>, std::allocator<std::basic_string<char> > >::_Vector_impl"*] [debug line = 96:9]
  %4 = bitcast %"struct.std::_Vector_base<std::basic_string<char>, std::allocator<std::basic_string<char> > >::_Vector_impl"* %3 to %"class.std::ios_base::Init"*, !dbg !5264 ; [#uses=1 type=%"class.std::ios_base::Init"*] [debug line = 96:9]
  ret %"class.std::ios_base::Init"* %4, !dbg !5264 ; [debug line = 96:9]
}

; [#uses=3]
define linkonce_odr void @_ZNSt12_Vector_baseISsSaISsEE13_M_deallocateEPSsm(%"struct.std::_Vector_base.4"* %this, %"class.std::basic_string"* %__p, i64 %__n) nounwind uwtable align 2 {
  %1 = alloca %"struct.std::_Vector_base.4"*, align 8 ; [#uses=2 type=%"struct.std::_Vector_base.4"**]
  %2 = alloca %"class.std::basic_string"*, align 8 ; [#uses=3 type=%"class.std::basic_string"**]
  %3 = alloca i64, align 8                        ; [#uses=2 type=i64*]
  store %"struct.std::_Vector_base.4"* %this, %"struct.std::_Vector_base.4"** %1, align 8
  call void @llvm.dbg.declare(metadata !{%"struct.std::_Vector_base.4"** %1}, metadata !5266), !dbg !5267 ; [debug line = 153:7] [debug variable = this]
  store %"class.std::basic_string"* %__p, %"class.std::basic_string"** %2, align 8
  call void @llvm.dbg.declare(metadata !{%"class.std::basic_string"** %2}, metadata !5268), !dbg !5269 ; [debug line = 153:54] [debug variable = __p]
  store i64 %__n, i64* %3, align 8
  call void @llvm.dbg.declare(metadata !{i64* %3}, metadata !5270), !dbg !5271 ; [debug line = 153:66] [debug variable = __n]
  %4 = load %"struct.std::_Vector_base.4"** %1    ; [#uses=1 type=%"struct.std::_Vector_base.4"*]
  %5 = load %"class.std::basic_string"** %2, align 8, !dbg !5272 ; [#uses=1 type=%"class.std::basic_string"*] [debug line = 155:2]
  %6 = icmp ne %"class.std::basic_string"* %5, null, !dbg !5272 ; [#uses=1 type=i1] [debug line = 155:2]
  br i1 %6, label %7, label %12, !dbg !5272       ; [debug line = 155:2]

; <label>:7                                       ; preds = %0
  %8 = getelementptr inbounds %"struct.std::_Vector_base.4"* %4, i32 0, i32 0, !dbg !5274 ; [#uses=1 type=%"struct.std::_Vector_base<std::basic_string<char>, std::allocator<std::basic_string<char> > >::_Vector_impl"*] [debug line = 156:4]
  %9 = bitcast %"struct.std::_Vector_base<std::basic_string<char>, std::allocator<std::basic_string<char> > >::_Vector_impl"* %8 to %"class.std::ios_base::Init"*, !dbg !5274 ; [#uses=1 type=%"class.std::ios_base::Init"*] [debug line = 156:4]
  %10 = load %"class.std::basic_string"** %2, align 8, !dbg !5274 ; [#uses=1 type=%"class.std::basic_string"*] [debug line = 156:4]
  %11 = load i64* %3, align 8, !dbg !5274         ; [#uses=1 type=i64] [debug line = 156:4]
  call void @_ZN9__gnu_cxx13new_allocatorISsE10deallocateEPSsm(%"class.std::ios_base::Init"* %9, %"class.std::basic_string"* %10, i64 %11), !dbg !5274 ; [debug line = 156:4]
  br label %12, !dbg !5274                        ; [debug line = 156:4]

; <label>:12                                      ; preds = %7, %0
  ret void, !dbg !5275                            ; [debug line = 157:7]
}

; [#uses=1]
define linkonce_odr void @_ZSt8_DestroyIN9__gnu_cxx17__normal_iteratorIPSsSt6vectorISsSaISsEEEESsEvT_S7_RSaIT0_E(%"class.__gnu_cxx::__normal_iterator.18"* byval align 8 %__first, %"class.__gnu_cxx::__normal_iterator.18"* byval align 8 %__last, %"class.std::ios_base::Init"*) nounwind uwtable inlinehint {
  %2 = alloca %"class.std::ios_base::Init"*, align 8 ; [#uses=1 type=%"class.std::ios_base::Init"**]
  %3 = alloca %"class.__gnu_cxx::__normal_iterator.18", align 8 ; [#uses=3 type=%"class.__gnu_cxx::__normal_iterator.18"*]
  %4 = alloca %"class.__gnu_cxx::__normal_iterator.18", align 8 ; [#uses=3 type=%"class.__gnu_cxx::__normal_iterator.18"*]
  call void @llvm.dbg.declare(metadata !{%"class.__gnu_cxx::__normal_iterator.18"* %__first}, metadata !5276), !dbg !5277 ; [debug line = 150:31] [debug variable = __first]
  call void @llvm.dbg.declare(metadata !{%"class.__gnu_cxx::__normal_iterator.18"* %__last}, metadata !5278), !dbg !5279 ; [debug line = 150:57] [debug variable = __last]
  store %"class.std::ios_base::Init"* %0, %"class.std::ios_base::Init"** %2, align 8
  %5 = bitcast %"class.__gnu_cxx::__normal_iterator.18"* %3 to i8*, !dbg !5280 ; [#uses=0 type=i8*] [debug line = 153:7]
  %6 = bitcast %"class.__gnu_cxx::__normal_iterator.18"* %__first to i8*, !dbg !5280 ; [#uses=0 type=i8*] [debug line = 153:7]
  %7 = getelementptr inbounds %"class.__gnu_cxx::__normal_iterator.18"* %3, i32 0, i32 0, !dbg !5280 ; [#uses=1 type=%"class.std::basic_string"**] [debug line = 153:7]
  %8 = getelementptr inbounds %"class.__gnu_cxx::__normal_iterator.18"* %__first, i32 0, i32 0, !dbg !5280 ; [#uses=1 type=%"class.std::basic_string"**] [debug line = 153:7]
  %9 = load %"class.std::basic_string"** %8, !dbg !5280 ; [#uses=1 type=%"class.std::basic_string"*] [debug line = 153:7]
  store %"class.std::basic_string"* %9, %"class.std::basic_string"** %7, !dbg !5280 ; [debug line = 153:7]
  %10 = bitcast %"class.__gnu_cxx::__normal_iterator.18"* %4 to i8*, !dbg !5280 ; [#uses=0 type=i8*] [debug line = 153:7]
  %11 = bitcast %"class.__gnu_cxx::__normal_iterator.18"* %__last to i8*, !dbg !5280 ; [#uses=0 type=i8*] [debug line = 153:7]
  %12 = getelementptr inbounds %"class.__gnu_cxx::__normal_iterator.18"* %4, i32 0, i32 0, !dbg !5280 ; [#uses=1 type=%"class.std::basic_string"**] [debug line = 153:7]
  %13 = getelementptr inbounds %"class.__gnu_cxx::__normal_iterator.18"* %__last, i32 0, i32 0, !dbg !5280 ; [#uses=1 type=%"class.std::basic_string"**] [debug line = 153:7]
  %14 = load %"class.std::basic_string"** %13, !dbg !5280 ; [#uses=1 type=%"class.std::basic_string"*] [debug line = 153:7]
  store %"class.std::basic_string"* %14, %"class.std::basic_string"** %12, !dbg !5280 ; [debug line = 153:7]
  call void @_ZSt8_DestroyIN9__gnu_cxx17__normal_iteratorIPSsSt6vectorISsSaISsEEEEEvT_S7_(%"class.__gnu_cxx::__normal_iterator.18"* byval align 8 %3, %"class.__gnu_cxx::__normal_iterator.18"* byval align 8 %4), !dbg !5280 ; [debug line = 153:7]
  ret void, !dbg !5282                            ; [debug line = 154:5]
}

; [#uses=1]
define linkonce_odr void @_ZSt4copyIN9__gnu_cxx17__normal_iteratorIPKSsSt6vectorISsSaISsEEEENS1_IPSsS6_EEET0_T_SB_SA_(%"class.__gnu_cxx::__normal_iterator.18"* noalias sret %agg.result, %"class.__gnu_cxx::__normal_iterator.18"* byval align 8 %__first, %"class.__gnu_cxx::__normal_iterator.18"* byval align 8 %__last, %"class.__gnu_cxx::__normal_iterator.18"* byval align 8 %__result) nounwind uwtable inlinehint {
  %1 = alloca %"class.__gnu_cxx::__normal_iterator.18", align 8 ; [#uses=2 type=%"class.__gnu_cxx::__normal_iterator.18"*]
  %2 = alloca %"class.__gnu_cxx::__normal_iterator.18", align 8 ; [#uses=3 type=%"class.__gnu_cxx::__normal_iterator.18"*]
  %3 = alloca %"class.__gnu_cxx::__normal_iterator.18", align 8 ; [#uses=2 type=%"class.__gnu_cxx::__normal_iterator.18"*]
  %4 = alloca %"class.__gnu_cxx::__normal_iterator.18", align 8 ; [#uses=3 type=%"class.__gnu_cxx::__normal_iterator.18"*]
  %5 = alloca %"class.__gnu_cxx::__normal_iterator.18", align 8 ; [#uses=3 type=%"class.__gnu_cxx::__normal_iterator.18"*]
  call void @llvm.dbg.declare(metadata !{%"class.__gnu_cxx::__normal_iterator.18"* %__first}, metadata !5283), !dbg !5284 ; [debug line = 444:14] [debug variable = __first]
  call void @llvm.dbg.declare(metadata !{%"class.__gnu_cxx::__normal_iterator.18"* %__last}, metadata !5285), !dbg !5286 ; [debug line = 444:27] [debug variable = __last]
  call void @llvm.dbg.declare(metadata !{%"class.__gnu_cxx::__normal_iterator.18"* %__result}, metadata !5287), !dbg !5288 ; [debug line = 444:39] [debug variable = __result]
  %6 = bitcast %"class.__gnu_cxx::__normal_iterator.18"* %2 to i8*, !dbg !5289 ; [#uses=0 type=i8*] [debug line = 453:9]
  %7 = bitcast %"class.__gnu_cxx::__normal_iterator.18"* %__first to i8*, !dbg !5289 ; [#uses=0 type=i8*] [debug line = 453:9]
  %8 = getelementptr inbounds %"class.__gnu_cxx::__normal_iterator.18"* %2, i32 0, i32 0, !dbg !5289 ; [#uses=1 type=%"class.std::basic_string"**] [debug line = 453:9]
  %9 = getelementptr inbounds %"class.__gnu_cxx::__normal_iterator.18"* %__first, i32 0, i32 0, !dbg !5289 ; [#uses=1 type=%"class.std::basic_string"**] [debug line = 453:9]
  %10 = load %"class.std::basic_string"** %9, !dbg !5289 ; [#uses=1 type=%"class.std::basic_string"*] [debug line = 453:9]
  store %"class.std::basic_string"* %10, %"class.std::basic_string"** %8, !dbg !5289 ; [debug line = 453:9]
  call void @_ZSt12__miter_baseIN9__gnu_cxx17__normal_iteratorIPKSsSt6vectorISsSaISsEEEEENSt11_Miter_baseIT_E13iterator_typeES9_(%"class.__gnu_cxx::__normal_iterator.18"* sret %1, %"class.__gnu_cxx::__normal_iterator.18"* byval align 8 %2), !dbg !5289 ; [debug line = 453:9]
  %11 = bitcast %"class.__gnu_cxx::__normal_iterator.18"* %4 to i8*, !dbg !5291 ; [#uses=0 type=i8*] [debug line = 453:37]
  %12 = bitcast %"class.__gnu_cxx::__normal_iterator.18"* %__last to i8*, !dbg !5291 ; [#uses=0 type=i8*] [debug line = 453:37]
  %13 = getelementptr inbounds %"class.__gnu_cxx::__normal_iterator.18"* %4, i32 0, i32 0, !dbg !5291 ; [#uses=1 type=%"class.std::basic_string"**] [debug line = 453:37]
  %14 = getelementptr inbounds %"class.__gnu_cxx::__normal_iterator.18"* %__last, i32 0, i32 0, !dbg !5291 ; [#uses=1 type=%"class.std::basic_string"**] [debug line = 453:37]
  %15 = load %"class.std::basic_string"** %14, !dbg !5291 ; [#uses=1 type=%"class.std::basic_string"*] [debug line = 453:37]
  store %"class.std::basic_string"* %15, %"class.std::basic_string"** %13, !dbg !5291 ; [debug line = 453:37]
  call void @_ZSt12__miter_baseIN9__gnu_cxx17__normal_iteratorIPKSsSt6vectorISsSaISsEEEEENSt11_Miter_baseIT_E13iterator_typeES9_(%"class.__gnu_cxx::__normal_iterator.18"* sret %3, %"class.__gnu_cxx::__normal_iterator.18"* byval align 8 %4), !dbg !5291 ; [debug line = 453:37]
  %16 = bitcast %"class.__gnu_cxx::__normal_iterator.18"* %5 to i8*, !dbg !5291 ; [#uses=0 type=i8*] [debug line = 453:37]
  %17 = bitcast %"class.__gnu_cxx::__normal_iterator.18"* %__result to i8*, !dbg !5291 ; [#uses=0 type=i8*] [debug line = 453:37]
  %18 = getelementptr inbounds %"class.__gnu_cxx::__normal_iterator.18"* %5, i32 0, i32 0, !dbg !5291 ; [#uses=1 type=%"class.std::basic_string"**] [debug line = 453:37]
  %19 = getelementptr inbounds %"class.__gnu_cxx::__normal_iterator.18"* %__result, i32 0, i32 0, !dbg !5291 ; [#uses=1 type=%"class.std::basic_string"**] [debug line = 453:37]
  %20 = load %"class.std::basic_string"** %19, !dbg !5291 ; [#uses=1 type=%"class.std::basic_string"*] [debug line = 453:37]
  store %"class.std::basic_string"* %20, %"class.std::basic_string"** %18, !dbg !5291 ; [debug line = 453:37]
  call void @_ZSt14__copy_move_a2ILb0EN9__gnu_cxx17__normal_iteratorIPKSsSt6vectorISsSaISsEEEENS1_IPSsS6_EEET1_T0_SB_SA_(%"class.__gnu_cxx::__normal_iterator.18"* sret %agg.result, %"class.__gnu_cxx::__normal_iterator.18"* byval align 8 %1, %"class.__gnu_cxx::__normal_iterator.18"* byval align 8 %3, %"class.__gnu_cxx::__normal_iterator.18"* byval align 8 %5), !dbg !5291 ; [debug line = 453:37]
  ret void, !dbg !5291                            ; [debug line = 453:37]
}

; [#uses=2]
define linkonce_odr void @_ZNSt6vectorISsSaISsEE5beginEv(%"class.__gnu_cxx::__normal_iterator.18"* noalias sret %agg.result, %"class.std::vector.3"* %this) nounwind uwtable align 2 {
  %1 = alloca %"class.std::vector.3"*, align 8    ; [#uses=2 type=%"class.std::vector.3"**]
  store %"class.std::vector.3"* %this, %"class.std::vector.3"** %1, align 8
  call void @llvm.dbg.declare(metadata !{%"class.std::vector.3"** %1}, metadata !5292), !dbg !5293 ; [debug line = 463:7] [debug variable = this]
  %2 = load %"class.std::vector.3"** %1           ; [#uses=1 type=%"class.std::vector.3"*]
  %3 = bitcast %"class.std::vector.3"* %2 to %"struct.std::_Vector_base.4"*, !dbg !5294 ; [#uses=1 type=%"struct.std::_Vector_base.4"*] [debug line = 464:9]
  %4 = getelementptr inbounds %"struct.std::_Vector_base.4"* %3, i32 0, i32 0, !dbg !5294 ; [#uses=1 type=%"struct.std::_Vector_base<std::basic_string<char>, std::allocator<std::basic_string<char> > >::_Vector_impl"*] [debug line = 464:9]
  %5 = getelementptr inbounds %"struct.std::_Vector_base<std::basic_string<char>, std::allocator<std::basic_string<char> > >::_Vector_impl"* %4, i32 0, i32 0, !dbg !5294 ; [#uses=1 type=%"class.std::basic_string"**] [debug line = 464:9]
  call void @_ZN9__gnu_cxx17__normal_iteratorIPSsSt6vectorISsSaISsEEEC1ERKS1_(%"class.__gnu_cxx::__normal_iterator.18"* %agg.result, %"class.std::basic_string"** %5), !dbg !5294 ; [debug line = 464:9]
  ret void, !dbg !5294                            ; [debug line = 464:9]
}

; [#uses=2]
define linkonce_odr void @_ZNSt6vectorISsSaISsEE3endEv(%"class.__gnu_cxx::__normal_iterator.18"* noalias sret %agg.result, %"class.std::vector.3"* %this) nounwind uwtable align 2 {
  %1 = alloca %"class.std::vector.3"*, align 8    ; [#uses=2 type=%"class.std::vector.3"**]
  store %"class.std::vector.3"* %this, %"class.std::vector.3"** %1, align 8
  call void @llvm.dbg.declare(metadata !{%"class.std::vector.3"** %1}, metadata !5296), !dbg !5297 ; [debug line = 481:7] [debug variable = this]
  %2 = load %"class.std::vector.3"** %1           ; [#uses=1 type=%"class.std::vector.3"*]
  %3 = bitcast %"class.std::vector.3"* %2 to %"struct.std::_Vector_base.4"*, !dbg !5298 ; [#uses=1 type=%"struct.std::_Vector_base.4"*] [debug line = 482:9]
  %4 = getelementptr inbounds %"struct.std::_Vector_base.4"* %3, i32 0, i32 0, !dbg !5298 ; [#uses=1 type=%"struct.std::_Vector_base<std::basic_string<char>, std::allocator<std::basic_string<char> > >::_Vector_impl"*] [debug line = 482:9]
  %5 = getelementptr inbounds %"struct.std::_Vector_base<std::basic_string<char>, std::allocator<std::basic_string<char> > >::_Vector_impl"* %4, i32 0, i32 1, !dbg !5298 ; [#uses=1 type=%"class.std::basic_string"**] [debug line = 482:9]
  call void @_ZN9__gnu_cxx17__normal_iteratorIPSsSt6vectorISsSaISsEEEC1ERKS1_(%"class.__gnu_cxx::__normal_iterator.18"* %agg.result, %"class.std::basic_string"** %5), !dbg !5298 ; [debug line = 482:9]
  ret void, !dbg !5298                            ; [debug line = 482:9]
}

; [#uses=1]
define linkonce_odr %"class.std::basic_string"* @_ZSt4copyIPSsS0_ET0_T_S2_S1_(%"class.std::basic_string"* %__first, %"class.std::basic_string"* %__last, %"class.std::basic_string"* %__result) nounwind uwtable inlinehint {
  %1 = alloca %"class.std::basic_string"*, align 8 ; [#uses=2 type=%"class.std::basic_string"**]
  %2 = alloca %"class.std::basic_string"*, align 8 ; [#uses=2 type=%"class.std::basic_string"**]
  %3 = alloca %"class.std::basic_string"*, align 8 ; [#uses=2 type=%"class.std::basic_string"**]
  store %"class.std::basic_string"* %__first, %"class.std::basic_string"** %1, align 8
  call void @llvm.dbg.declare(metadata !{%"class.std::basic_string"** %1}, metadata !5300), !dbg !5301 ; [debug line = 444:14] [debug variable = __first]
  store %"class.std::basic_string"* %__last, %"class.std::basic_string"** %2, align 8
  call void @llvm.dbg.declare(metadata !{%"class.std::basic_string"** %2}, metadata !5302), !dbg !5303 ; [debug line = 444:27] [debug variable = __last]
  store %"class.std::basic_string"* %__result, %"class.std::basic_string"** %3, align 8
  call void @llvm.dbg.declare(metadata !{%"class.std::basic_string"** %3}, metadata !5304), !dbg !5305 ; [debug line = 444:39] [debug variable = __result]
  %4 = load %"class.std::basic_string"** %1, align 8, !dbg !5306 ; [#uses=1 type=%"class.std::basic_string"*] [debug line = 453:9]
  %5 = call %"class.std::basic_string"* @_ZSt12__miter_baseIPSsENSt11_Miter_baseIT_E13iterator_typeES2_(%"class.std::basic_string"* %4), !dbg !5306 ; [#uses=1 type=%"class.std::basic_string"*] [debug line = 453:9]
  %6 = load %"class.std::basic_string"** %2, align 8, !dbg !5308 ; [#uses=1 type=%"class.std::basic_string"*] [debug line = 453:37]
  %7 = call %"class.std::basic_string"* @_ZSt12__miter_baseIPSsENSt11_Miter_baseIT_E13iterator_typeES2_(%"class.std::basic_string"* %6), !dbg !5308 ; [#uses=1 type=%"class.std::basic_string"*] [debug line = 453:37]
  %8 = load %"class.std::basic_string"** %3, align 8, !dbg !5308 ; [#uses=1 type=%"class.std::basic_string"*] [debug line = 453:37]
  %9 = call %"class.std::basic_string"* @_ZSt14__copy_move_a2ILb0EPSsS0_ET1_T0_S2_S1_(%"class.std::basic_string"* %5, %"class.std::basic_string"* %7, %"class.std::basic_string"* %8), !dbg !5308 ; [#uses=1 type=%"class.std::basic_string"*] [debug line = 453:37]
  ret %"class.std::basic_string"* %9, !dbg !5308  ; [debug line = 453:37]
}

; [#uses=2]
define linkonce_odr %"class.std::basic_string"* @_ZSt22__uninitialized_copy_aIPSsS0_SsET0_T_S2_S1_RSaIT1_E(%"class.std::basic_string"* %__first, %"class.std::basic_string"* %__last, %"class.std::basic_string"* %__result, %"class.std::ios_base::Init"*) nounwind uwtable inlinehint {
  %2 = alloca %"class.std::basic_string"*, align 8 ; [#uses=2 type=%"class.std::basic_string"**]
  %3 = alloca %"class.std::basic_string"*, align 8 ; [#uses=2 type=%"class.std::basic_string"**]
  %4 = alloca %"class.std::basic_string"*, align 8 ; [#uses=2 type=%"class.std::basic_string"**]
  %5 = alloca %"class.std::ios_base::Init"*, align 8 ; [#uses=1 type=%"class.std::ios_base::Init"**]
  store %"class.std::basic_string"* %__first, %"class.std::basic_string"** %2, align 8
  call void @llvm.dbg.declare(metadata !{%"class.std::basic_string"** %2}, metadata !5309), !dbg !5310 ; [debug line = 257:43] [debug variable = __first]
  store %"class.std::basic_string"* %__last, %"class.std::basic_string"** %3, align 8
  call void @llvm.dbg.declare(metadata !{%"class.std::basic_string"** %3}, metadata !5311), !dbg !5312 ; [debug line = 257:67] [debug variable = __last]
  store %"class.std::basic_string"* %__result, %"class.std::basic_string"** %4, align 8
  call void @llvm.dbg.declare(metadata !{%"class.std::basic_string"** %4}, metadata !5313), !dbg !5314 ; [debug line = 258:24] [debug variable = __result]
  store %"class.std::ios_base::Init"* %0, %"class.std::ios_base::Init"** %5, align 8
  %6 = load %"class.std::basic_string"** %2, align 8, !dbg !5315 ; [#uses=1 type=%"class.std::basic_string"*] [debug line = 259:14]
  %7 = load %"class.std::basic_string"** %3, align 8, !dbg !5315 ; [#uses=1 type=%"class.std::basic_string"*] [debug line = 259:14]
  %8 = load %"class.std::basic_string"** %4, align 8, !dbg !5315 ; [#uses=1 type=%"class.std::basic_string"*] [debug line = 259:14]
  %9 = call %"class.std::basic_string"* @_ZSt18uninitialized_copyIPSsS0_ET0_T_S2_S1_(%"class.std::basic_string"* %6, %"class.std::basic_string"* %7, %"class.std::basic_string"* %8), !dbg !5315 ; [#uses=1 type=%"class.std::basic_string"*] [debug line = 259:14]
  ret %"class.std::basic_string"* %9, !dbg !5315  ; [debug line = 259:14]
}

; [#uses=1]
define linkonce_odr %"class.std::basic_string"* @_ZSt18uninitialized_copyIPSsS0_ET0_T_S2_S1_(%"class.std::basic_string"* %__first, %"class.std::basic_string"* %__last, %"class.std::basic_string"* %__result) nounwind uwtable inlinehint {
  %1 = alloca %"class.std::basic_string"*, align 8 ; [#uses=2 type=%"class.std::basic_string"**]
  %2 = alloca %"class.std::basic_string"*, align 8 ; [#uses=2 type=%"class.std::basic_string"**]
  %3 = alloca %"class.std::basic_string"*, align 8 ; [#uses=2 type=%"class.std::basic_string"**]
  store %"class.std::basic_string"* %__first, %"class.std::basic_string"** %1, align 8
  call void @llvm.dbg.declare(metadata !{%"class.std::basic_string"** %1}, metadata !5317), !dbg !5318 ; [debug line = 109:39] [debug variable = __first]
  store %"class.std::basic_string"* %__last, %"class.std::basic_string"** %2, align 8
  call void @llvm.dbg.declare(metadata !{%"class.std::basic_string"** %2}, metadata !5319), !dbg !5320 ; [debug line = 109:63] [debug variable = __last]
  store %"class.std::basic_string"* %__result, %"class.std::basic_string"** %3, align 8
  call void @llvm.dbg.declare(metadata !{%"class.std::basic_string"** %3}, metadata !5321), !dbg !5322 ; [debug line = 110:27] [debug variable = __result]
  %4 = load %"class.std::basic_string"** %1, align 8, !dbg !5323 ; [#uses=1 type=%"class.std::basic_string"*] [debug line = 117:14]
  %5 = load %"class.std::basic_string"** %2, align 8, !dbg !5323 ; [#uses=1 type=%"class.std::basic_string"*] [debug line = 117:14]
  %6 = load %"class.std::basic_string"** %3, align 8, !dbg !5323 ; [#uses=1 type=%"class.std::basic_string"*] [debug line = 117:14]
  %7 = call %"class.std::basic_string"* @_ZNSt20__uninitialized_copyILb0EE13__uninit_copyIPSsS2_EET0_T_S4_S3_(%"class.std::basic_string"* %4, %"class.std::basic_string"* %5, %"class.std::basic_string"* %6), !dbg !5323 ; [#uses=1 type=%"class.std::basic_string"*] [debug line = 117:14]
  ret %"class.std::basic_string"* %7, !dbg !5323  ; [debug line = 117:14]
}

; [#uses=1]
define linkonce_odr %"class.std::basic_string"* @_ZNSt20__uninitialized_copyILb0EE13__uninit_copyIPSsS2_EET0_T_S4_S3_(%"class.std::basic_string"* %__first, %"class.std::basic_string"* %__last, %"class.std::basic_string"* %__result) nounwind uwtable align 2 {
  %1 = alloca %"class.std::basic_string"*, align 8 ; [#uses=5 type=%"class.std::basic_string"**]
  %2 = alloca %"class.std::basic_string"*, align 8 ; [#uses=2 type=%"class.std::basic_string"**]
  %3 = alloca %"class.std::basic_string"*, align 8 ; [#uses=2 type=%"class.std::basic_string"**]
  %__cur = alloca %"class.std::basic_string"*, align 8 ; [#uses=5 type=%"class.std::basic_string"**]
  store %"class.std::basic_string"* %__first, %"class.std::basic_string"** %1, align 8
  call void @llvm.dbg.declare(metadata !{%"class.std::basic_string"** %1}, metadata !5325), !dbg !5326 ; [debug line = 70:38] [debug variable = __first]
  store %"class.std::basic_string"* %__last, %"class.std::basic_string"** %2, align 8
  call void @llvm.dbg.declare(metadata !{%"class.std::basic_string"** %2}, metadata !5327), !dbg !5328 ; [debug line = 70:62] [debug variable = __last]
  store %"class.std::basic_string"* %__result, %"class.std::basic_string"** %3, align 8
  call void @llvm.dbg.declare(metadata !{%"class.std::basic_string"** %3}, metadata !5329), !dbg !5330 ; [debug line = 71:26] [debug variable = __result]
  call void @llvm.dbg.declare(metadata !{%"class.std::basic_string"** %__cur}, metadata !5331), !dbg !5333 ; [debug line = 73:21] [debug variable = __cur]
  %4 = load %"class.std::basic_string"** %3, align 8, !dbg !5334 ; [#uses=1 type=%"class.std::basic_string"*] [debug line = 73:37]
  store %"class.std::basic_string"* %4, %"class.std::basic_string"** %__cur, align 8, !dbg !5334 ; [debug line = 73:37]
  br label %5, !dbg !5335                         ; [debug line = 76:8]

; <label>:5                                       ; preds = %13, %0
  %6 = load %"class.std::basic_string"** %1, align 8, !dbg !5335 ; [#uses=1 type=%"class.std::basic_string"*] [debug line = 76:8]
  %7 = load %"class.std::basic_string"** %2, align 8, !dbg !5335 ; [#uses=1 type=%"class.std::basic_string"*] [debug line = 76:8]
  %8 = icmp ne %"class.std::basic_string"* %6, %7, !dbg !5335 ; [#uses=1 type=i1] [debug line = 76:8]
  br i1 %8, label %9, label %18, !dbg !5335       ; [debug line = 76:8]

; <label>:9                                       ; preds = %5
  %10 = load %"class.std::basic_string"** %__cur, align 8, !dbg !5338 ; [#uses=1 type=%"class.std::basic_string"*] [debug line = 77:19]
  %11 = call %"class.std::basic_string"* @_ZSt11__addressofISsEPT_RS0_(%"class.std::basic_string"* %10), !dbg !5338 ; [#uses=1 type=%"class.std::basic_string"*] [debug line = 77:19]
  %12 = load %"class.std::basic_string"** %1, align 8, !dbg !5338 ; [#uses=1 type=%"class.std::basic_string"*] [debug line = 77:19]
  call void @_ZSt10_ConstructISsSsEvPT_RKT0_(%"class.std::basic_string"* %11, %"class.std::basic_string"* %12), !dbg !5338 ; [debug line = 77:19]
  br label %13, !dbg !5338                        ; [debug line = 77:19]

; <label>:13                                      ; preds = %9
  %14 = load %"class.std::basic_string"** %1, align 8, !dbg !5339 ; [#uses=1 type=%"class.std::basic_string"*] [debug line = 76:34]
  %15 = getelementptr inbounds %"class.std::basic_string"* %14, i32 1, !dbg !5339 ; [#uses=1 type=%"class.std::basic_string"*] [debug line = 76:34]
  store %"class.std::basic_string"* %15, %"class.std::basic_string"** %1, align 8, !dbg !5339 ; [debug line = 76:34]
  %16 = load %"class.std::basic_string"** %__cur, align 8, !dbg !5339 ; [#uses=1 type=%"class.std::basic_string"*] [debug line = 76:34]
  %17 = getelementptr inbounds %"class.std::basic_string"* %16, i32 1, !dbg !5339 ; [#uses=1 type=%"class.std::basic_string"*] [debug line = 76:34]
  store %"class.std::basic_string"* %17, %"class.std::basic_string"** %__cur, align 8, !dbg !5339 ; [debug line = 76:34]
  br label %5, !dbg !5339                         ; [debug line = 76:34]

; <label>:18                                      ; preds = %5
  %19 = load %"class.std::basic_string"** %__cur, align 8, !dbg !5340 ; [#uses=1 type=%"class.std::basic_string"*] [debug line = 78:8]
  ret %"class.std::basic_string"* %19, !dbg !5340 ; [debug line = 78:8]
}

; [#uses=2]
define linkonce_odr void @_ZSt10_ConstructISsSsEvPT_RKT0_(%"class.std::basic_string"* %__p, %"class.std::basic_string"* %__value) nounwind uwtable inlinehint {
  %1 = alloca %"class.std::basic_string"*, align 8 ; [#uses=2 type=%"class.std::basic_string"**]
  %2 = alloca %"class.std::basic_string"*, align 8 ; [#uses=2 type=%"class.std::basic_string"**]
  store %"class.std::basic_string"* %__p, %"class.std::basic_string"** %1, align 8
  call void @llvm.dbg.declare(metadata !{%"class.std::basic_string"** %1}, metadata !5341), !dbg !5342 ; [debug line = 80:21] [debug variable = __p]
  store %"class.std::basic_string"* %__value, %"class.std::basic_string"** %2, align 8
  call void @llvm.dbg.declare(metadata !{%"class.std::basic_string"** %2}, metadata !5343), !dbg !5344 ; [debug line = 80:37] [debug variable = __value]
  %3 = load %"class.std::basic_string"** %1, align 8, !dbg !5345 ; [#uses=1 type=%"class.std::basic_string"*] [debug line = 84:7]
  %4 = bitcast %"class.std::basic_string"* %3 to i8*, !dbg !5345 ; [#uses=2 type=i8*] [debug line = 84:7]
  %5 = icmp eq i8* %4, null, !dbg !5345           ; [#uses=1 type=i1] [debug line = 84:7]
  br i1 %5, label %9, label %6, !dbg !5345        ; [debug line = 84:7]

; <label>:6                                       ; preds = %0
